(dp0
S'AGN'
p1
(i__main__
Scrip
p2
(dp3
S'name'
p4
S'Allergan, Inc'
p5
sS'symbol'
p6
g1
sS'short_term_gain'
p7
cnumpy.core.multiarray
scalar
p8
(cnumpy
dtype
p9
(S'f8'
p10
I0
I1
tp11
Rp12
(I3
S'<'
p13
NNNI-1
I-1
I0
tp14
bS'\xba\xd2\xafG)\x94+@'
p15
tp16
Rp17
sS'long_term_gain'
p18
g8
(g12
S'\xbf\xab^*Y\xd4}@'
p19
tp20
Rp21
sS'mid_term_gain'
p22
g8
(g12
S'\x81\xa6\x10h\n\x9d\x82@'
p23
tp24
Rp25
sS'turnover'
p26
I-1
sS'quantity'
p27
I2377467
sbsS'LIFE'
p28
(i__main__
Scrip
p29
(dp30
g4
S'Life Technologies'
p31
sg6
g28
sg7
g8
(g12
S'e\x93M6\xd9\x14S\xc0'
p32
tp33
Rp34
sg18
g8
(g12
S'\x1f\x1a\xebCc}H\xc0'
p35
tp36
Rp37
sg22
g8
(g12
S'\n&s\x10p\xebM\xc0'
p38
tp39
Rp40
sg26
I-1
sg27
I1400
sbsS'EOG'
p41
(i__main__
Scrip
p42
(dp43
g4
S'EOG Resources'
p44
sg6
g41
sg7
g8
(g12
S'O\xf5\x8f\x12Y\t>\xc0'
p45
tp46
Rp47
sg18
g8
(g12
S'?\xc0\x8e\x92~\xe7K@'
p48
tp49
Rp50
sg22
g8
(g12
S'O\x022\x87\xa4\xc8;\xc0'
p51
tp52
Rp53
sg26
I-1
sg27
I5501871
sbsS'WLP'
p54
(i__main__
Scrip
p55
(dp56
g4
S'WellPoint Inc'
p57
sg6
g54
sg7
g8
(g12
S')\xc2<.\xc9*L@'
p58
tp59
Rp60
sg18
g8
(g12
S'\xe2K\xc7\xab\x06h[@'
p61
tp62
Rp63
sg22
g8
(g12
S'[\x9a\xd0\xf4/oo@'
p64
tp65
Rp66
sg26
I-1
sg27
I1123621
sbsS'CPB'
p67
(i__main__
Scrip
p68
(dp69
g4
S'Campbell Soup'
p70
sg6
g67
sg7
g8
(g12
S'\xdf\xfa\xce\xfdI\xcb9@'
p71
tp72
Rp73
sg18
g8
(g12
S'\xb8m\xdb\xb6m\xdbX@'
p74
tp75
Rp76
sg22
g8
(g12
S' \xdbw\xfa\x91\xe5P@'
p77
tp78
Rp79
sg26
I-1
sg27
I1906118
sbsS'V'
p80
(i__main__
Scrip
p81
(dp82
g4
S'Visa IncA'
p83
sg6
g80
sg7
g8
(g12
S'\x02S\x0byB\x0cR\xc0'
p84
tp85
Rp86
sg22
g8
(g12
S'\x10\x93E\xa2Y\xaf1\xc0'
p87
tp88
Rp89
sg26
I-1
sg27
I12875249
sbsS'NYX'
p90
(i__main__
Scrip
p91
(dp92
g4
S'NYSE Euronext'
p93
sg6
g90
sg7
g8
(g12
S'\x02S\x0byB\x0cR\xc0'
p94
tp95
Rp96
sg22
g8
(g12
S'\x10\x93E\xa2Y\xaf1\xc0'
p97
tp98
Rp99
sg26
I-1
sg27
I12875249
sbsS'YUM'
p100
(i__main__
Scrip
p101
(dp102
g4
S'Yum Brands'
p103
sg6
g100
sg7
g8
(g12
S'\xc1\xb9\x86\x10y)\x13\xc0'
p104
tp105
Rp106
sg18
g8
(g12
S'ow\xf3\xc6K\x12X@'
p107
tp108
Rp109
sg22
g8
(g12
S'WA\xb4#\xdb<X@'
p110
tp111
Rp112
sg26
I-1
sg27
I7781278
sbsS'JWN'
p113
(i__main__
Scrip
p114
(dp115
g4
S'Nordstrom, Inc'
p116
sg6
g113
sg7
g8
(g12
S'B\x06\xb9\xf0\xcf\xb8@\xc0'
p117
tp118
Rp119
sg18
g8
(g12
S'D\xbb\x1dE\xbb\x1d5@'
p120
tp121
Rp122
sg22
g8
(g12
S'K0\xf85\xe8\xd2@@'
p123
tp124
Rp125
sg26
I-1
sg27
I4679410
sbsS'TAP'
p126
(i__main__
Scrip
p127
(dp128
g4
S'Molson Coors BrewingB'
p129
sg6
g126
sg7
g8
(g12
S'\xff\xad\x06\xb8\x1a\xe0*@'
p130
tp131
Rp132
sg18
g8
(g12
S'qpX\x90\xb6\x0cA@'
p133
tp134
Rp135
sg22
g8
(g12
S'\xd28|\x0b\x06TZ@'
p136
tp137
Rp138
sg26
I-1
sg27
I2913030
sbsS'VRTX'
p139
(i__main__
Scrip
p140
(dp141
g4
S'Vertex Pharmaceuticals'
p142
sg6
g139
sg7
g8
(g12
S'3j\xce\x90v\xc59\xc0'
p143
tp144
Rp145
sg18
g8
(g12
S'\x17\xc1a\xd6\xf5t\x86@'
p146
tp147
Rp148
sg22
g8
(g12
S'\xd9\xe5<\xd5_\xd2\\@'
p149
tp150
Rp151
sg26
I-1
sg27
I4486457
sbsS'BWA'
p152
(i__main__
Scrip
p153
(dp154
g4
S'Borg Warner'
p155
sg6
g152
sg7
g8
(g12
S'\xbf\xc4\x7f\x0c]_G\xc0'
p156
tp157
Rp158
sg18
g8
(g12
S't\x02(\xb7`\xf8P\xc0'
p159
tp160
Rp161
sg22
g8
(g12
S'5\rc\xaf\xeaN.\xc0'
p162
tp163
Rp164
sg26
I-1
sg27
I2972021
sbsS'AAPL'
p165
(i__main__
Scrip
p166
(dp167
g4
S'Apple Inc'
p168
sg6
g165
sg7
g8
(g12
S'H\xd9\xfdF\xd9\xfd4\xc0'
p169
tp170
Rp171
sg18
g8
(g12
S'a\xe8V\x1c\xfe\xddn@'
p172
tp173
Rp174
sg22
g8
(g12
S'\x00\x9deR\xea$J\xc0'
p175
tp176
Rp177
sg26
I-1
sg27
I45110654
sbsS'SPG'
p178
(i__main__
Scrip
p179
(dp180
g4
S'Simon Property Group'
p181
sg6
g178
sg7
g8
(g12
S'\xb0\x89\xadU~d\t@'
p182
tp183
Rp184
sg18
g8
(g12
S't/\xbb\x1f\x08nn@'
p185
tp186
Rp187
sg22
g8
(g12
S'q\x08\x87p\x08\x17c@'
p188
tp189
Rp190
sg26
I-1
sg27
I1423344
sbsS'FIS'
p191
(i__main__
Scrip
p192
(dp193
g4
S'Fidelity Natl Info Svcs'
p194
sg6
g191
sg7
g8
(g12
S'\x80\xffW]4\x19\xe4\xbf'
p195
tp196
Rp197
sg18
g8
(g12
S'\x00\xda\x06\xaf\xa5\x82S@'
p198
tp199
Rp200
sg22
g8
(g12
S'\xd2\x9c\x07\xe5\xdb\x95b@'
p201
tp202
Rp203
sg26
I-1
sg27
I1913258
sbsS'GT'
p204
(i__main__
Scrip
p205
(dp206
g4
S'Goodyear Tire & Rub'
p207
sg6
g204
sg7
g8
(g12
S'z\x15\xbc\x1fN_\x1d@'
p208
tp209
Rp210
sg18
g8
(g12
S'S3d\xf4\xd0\x0el@'
p211
tp212
Rp213
sg22
g8
(g12
S'r\xe1M\x81\xebxX@'
p214
tp215
Rp216
sg26
I-1
sg27
I4259540
sbsS'GIS'
p217
(i__main__
Scrip
p218
(dp219
g4
S'Genl Mills'
p220
sg6
g217
sg7
g8
(g12
S'\xf3\x0bB\xd5\xdaC!@'
p221
tp222
Rp223
sg18
g8
(g12
S'g\xd0}8\x81\xcc6@'
p224
tp225
Rp226
sg22
g8
(g12
S'\xcd\xb5\x03s\xed\xc03\xc0'
p227
tp228
Rp229
sg26
I-1
sg27
I3160061
sbsS'MJN'
p230
(i__main__
Scrip
p231
(dp232
g4
S'Mead Johnson Nutrition'
p233
sg6
g230
sg7
g8
(g12
S'\xd5\xe6\xa3\xe4\xac\xce;\xc0'
p234
tp235
Rp236
sg22
g8
(g12
S'H\xc2\xeb5\xad\xb4K@'
p237
tp238
Rp239
sg26
I-1
sg27
I4779651
sbsS'NWL'
p240
(i__main__
Scrip
p241
(dp242
g4
S'Newell Rubbermaid'
p243
sg6
g240
sg7
g8
(g12
S'^\xa4bnu\xc6\x11@'
p244
tp245
Rp246
sg18
g8
(g12
S'\xfc\xa7\x15\xc6\xd6\xaeD@'
p247
tp248
Rp249
sg22
g8
(g12
S'\xccPw\xd6\x0c\x15e@'
p250
tp251
Rp252
sg26
I-1
sg27
I7350792
sbsS'GE'
p253
(i__main__
Scrip
p254
(dp255
g4
S'Genl Electric'
p256
sg6
g253
sg7
g8
(g12
S'\xc4\xb2w\xc6\xb2w\x1e@'
p257
tp258
Rp259
sg18
g8
(g12
S'\xf6\xe7\xba\xe4=4-\xc0'
p260
tp261
Rp262
sg22
g8
(g12
S'PB\xb5\xe6\xd3/T@'
p263
tp264
Rp265
sg26
I-1
sg27
I51731448
sbsS'GD'
p266
(i__main__
Scrip
p267
(dp268
g4
S'Genl Dynamics'
p269
sg6
g266
sg7
g8
(g12
S'\x85\x1a\x16N]\x19\x14\xc0'
p270
tp271
Rp272
sg18
g8
(g12
S'\x8f\xac,\xf4\xd5\xbfE@'
p273
tp274
Rp275
sg22
g8
(g12
S'\x8c\xc6\xfb\n}TY@'
p276
tp277
Rp278
sg26
I-1
sg27
I1780501
sbsS'VAR'
p279
(i__main__
Scrip
p280
(dp281
g4
S'Varian Medical Systems'
p282
sg6
g279
sg7
g8
(g12
S'U\x98\x8c\xd0\xac\x15-\xc0'
p283
tp284
Rp285
sg18
g8
(g12
S'\xf2\x04 \xd0HY$\xc0'
p286
tp287
Rp288
sg22
g8
(g12
S'<\xea\xd5\xd2\xa3\xdeH@'
p289
tp290
Rp291
sg26
I-1
sg27
I1000927
sbsS'AMZN'
p292
(i__main__
Scrip
p293
(dp294
g4
S'Amazon.com Inc'
p295
sg6
g292
sg7
g8
(g12
S'\x97\xfb\xc43\x98TM@'
p296
tp297
Rp298
sg18
g8
(g12
S'z\xdd4\xc4\xeeG\x90@'
p299
tp300
Rp301
sg22
g8
(g12
S'\xdc\x801\x06\xec{t@'
p302
tp303
Rp304
sg26
I-1
sg27
I9589083
sbsS'MAS'
p305
(i__main__
Scrip
p306
(dp307
g4
S'Masco Corp'
p308
sg6
g305
sg7
g8
(g12
S'{\x0f\xf6\xaa\xb6S\x13@'
p309
tp310
Rp311
sg18
g8
(g12
S'\xf0\xd9\x84b\xe4\xe2&\xc0'
p312
tp313
Rp314
sg22
g8
(g12
S'\x1b\x12\x1a\xe8\x95\xf6Q@'
p315
tp316
Rp317
sg26
I-1
sg27
I6227564
sbsS'MAR'
p318
(i__main__
Scrip
p319
(dp320
g4
S'Marriott IntlA'
p321
sg6
g318
sg7
g8
(g12
S"(ZB\x18\x1c'7\xc0"
p322
tp323
Rp324
sg18
g8
(g12
S'\x90~\x9dS\x12 A@'
p325
tp326
Rp327
sg22
g8
(g12
S'{k\xc34w!`@'
p328
tp329
Rp330
sg26
I-1
sg27
I3569073
sbsS'MAT'
p331
(i__main__
Scrip
p332
(dp333
g4
S'Mattel, Inc'
p334
sg6
g331
sg7
g8
(g12
S'\x9b\xfd\xc9\xda\x99\x8e\x00@'
p335
tp336
Rp337
sg18
g8
(g12
S'\xdeo\x94\xddo\xc4P@'
p338
tp339
Rp340
sg22
g8
(g12
S'o\xef$K\x1d!M@'
p341
tp342
Rp343
sg26
I-1
sg27
I9220445
sbsS'SNA'
p344
(i__main__
Scrip
p345
(dp346
g4
S'Snap-On Inc'
p347
sg6
g344
sg7
g8
(g12
S'^\xbb\x08,\xff\xb2\x06@'
p348
tp349
Rp350
sg18
g8
(g12
S'\x80T\x84g\xd3du@'
p351
tp352
Rp353
sg22
g8
(g12
S'\xcb\xf0\x8d(0\xc9n@'
p354
tp355
Rp356
sg26
I-1
sg27
I1255377
sbsS'FOXA'
p357
(i__main__
Scrip
p358
(dp359
g4
S'Twenty-First Century Fox'
p360
sg6
g357
sg7
g8
(g12
S'\xf8m&o\x84\xa0;\xc0'
p361
tp362
Rp363
sg18
g8
(g12
S'\x00\x00\x00\x00\x00\xa85\xc0'
p364
tp365
Rp366
sg22
g8
(g12
S'\x19x\xba5?\\W@'
p367
tp368
Rp369
sg26
I-1
sg27
I16683599
sbsS'SNI'
p370
(i__main__
Scrip
p371
(dp372
g4
S'Scripps Networks Interact'
p373
sg6
g370
sg7
g8
(g12
S'\x92$I\x92$I0\xc0'
p374
tp375
Rp376
sg22
g8
(g12
S'\xd3e|I\x8b&F@'
p377
tp378
Rp379
sg26
I-1
sg27
I1937708
sbsS'XRAY'
p380
(i__main__
Scrip
p381
(dp382
g4
S'DENTSPLY Intl'
p383
sg6
g380
sg7
g8
(g12
S'=\xde\xaf\x002%*@'
p384
tp385
Rp386
sg18
g8
(g12
S'\xa0\x908Y\xd1/A@'
p387
tp388
Rp389
sg22
g8
(g12
S'\x93\xb2\t\x80\x02\xa5R@'
p390
tp391
Rp392
sg26
I-1
sg27
I1310176
sbsS'MAC'
p393
(i__main__
Scrip
p394
(dp395
g4
S'Macerich Co'
p396
sg6
g393
sg7
g8
(g12
S'6U\xef\xcei\xad&@'
p397
tp398
Rp399
sg18
g8
(g12
S'\x91\xd3|\xad\x9e\x9dL@'
p400
tp401
Rp402
sg22
g8
(g12
S'\xf6\x90\t\xf1\xb4\xe1a@'
p403
tp404
Rp405
sg26
I-1
sg27
I1199881
sbsS'JNJ'
p406
(i__main__
Scrip
p407
(dp408
g4
S'Johnson & Johnson'
p409
sg6
g406
sg7
g8
(g12
S'\x11\x9b\xfd\x91\\H\x1f\xc0'
p410
tp411
Rp412
sg18
g8
(g12
S'\xda+p\xa9CdU@'
p413
tp414
Rp415
sg22
g8
(g12
S'E\xf4\xb5{\x82\x99N@'
p416
tp417
Rp418
sg26
I-1
sg27
I15402934
sbsS'XYL'
p419
(i__main__
Scrip
p420
(dp421
g6
g419
sg27
I2394951
sg7
g8
(g12
S'rQyZ\xe8\x8e\xfd\xbf'
p422
tp423
Rp424
sg4
S'Xylem Inc'
p425
sg26
I-1
sbsS'TSN'
p426
(i__main__
Scrip
p427
(dp428
g4
S'Tyson FoodsA'
p429
sg6
g426
sg7
g8
(g12
S'3\xcaa\xdf\x93\x9bE@'
p430
tp431
Rp432
sg18
g8
(g12
S'c\xfe\xccMg@p@'
p433
tp434
Rp435
sg22
g8
(g12
S'K\x91\xca\xfb`Bs@'
p436
tp437
Rp438
sg26
I-1
sg27
I16157602
sbsS'TSO'
p439
(i__main__
Scrip
p440
(dp441
g4
S'Tesoro Corp'
p442
sg6
g439
sg7
g8
(g12
S's\xd5\xb2\xd9\xa7\\\x13@'
p443
tp444
Rp445
sg18
g8
(g12
S'\x89*\xbbj\xa2\x8av@'
p446
tp447
Rp448
sg22
g8
(g12
S'\xe5\xac\xba\xad\xe0N\x80@'
p449
tp450
Rp451
sg26
I-1
sg27
I2990261
sbsS'BEN'
p452
(i__main__
Scrip
p453
(dp454
g4
S'Franklin Resources'
p455
sg6
g452
sg7
g8
(g12
S'\x9c\xe3\x8eATGC\xc0'
p456
tp457
Rp458
sg18
g8
(g12
S'\x9d:u\xea\xd4\xa9@\xc0'
p459
tp460
Rp461
sg22
g8
(g12
S'E\xa8\x94\xc2+-Q\xc0'
p462
tp463
Rp464
sg26
I-1
sg27
I5317888
sbsS'CMI'
p465
(i__main__
Scrip
p466
(dp467
g4
S'Cummins Inc'
p468
sg6
g465
sg7
g8
(g12
S'9"6)\x12<@\xc0'
p469
tp470
Rp471
sg18
g8
(g12
S'\x02\xbdS\xd7r0W@'
p472
tp473
Rp474
sg22
g8
(g12
S'\xe38\x8e\xe38\xbeV@'
p475
tp476
Rp477
sg26
I-1
sg27
I3897701
sbsS'DISCA'
p478
(i__main__
Scrip
p479
(dp480
g4
S'Discovery Communications'
p481
sg6
g478
sg7
g8
(g12
S'aamF\xb411\xc0'
p482
tp483
Rp484
sg22
g8
(g12
S'\xd7\xdb&X\x8a\x91\x11\xc0'
p485
tp486
Rp487
sg26
I-1
sg27
I2974808
sbsS'CMG'
p488
(i__main__
Scrip
p489
(dp490
g4
S'Chipotle Mexican Grill'
p491
sg6
g488
sg7
g8
(g12
S'\x08Du\xa90f?\xc0'
p492
tp493
Rp494
sg22
g8
(g12
S'\x04rM\x04r\xf5w@'
p495
tp496
Rp497
sg26
I-1
sg27
I1519594
sbsS'CME'
p498
(i__main__
Scrip
p499
(dp500
g4
S'CME Group Inc'
p501
sg6
g498
sg7
g8
(g12
S'h\x88\x15\xa5\xf1\x91\x0b@'
p502
tp503
Rp504
sg18
g8
(g12
S'\xfe\xd3R^\x80Q\xff?'
p505
tp506
Rp507
sg22
g8
(g12
S'\xdcn\x981\xc4\x1dQ\xc0'
p508
tp509
Rp510
sg26
I-1
sg27
I2982615
sbsS'DTE'
p511
(i__main__
Scrip
p512
(dp513
g4
S'DTE Energy'
p514
sg6
g511
sg7
g8
(g12
S'y\x9f\xc8\x16\xf8p\x1b@'
p515
tp516
Rp517
sg18
g8
(g12
S'\x12\xeb\xd2c\xfe^]@'
p518
tp519
Rp520
sg22
g8
(g12
S'\x82]\x85/7\xc4Z@'
p521
tp522
Rp523
sg26
I-1
sg27
I1772510
sbsS'PCL'
p524
(i__main__
Scrip
p525
(dp526
g4
S'Plum Creek Timber'
p527
sg6
g524
sg7
g8
(g12
S'\xaa\xb4\xb4\xb4\xb4\xb4\x18\xc0'
p528
tp529
Rp530
sg18
g8
(g12
S'\xa6\xfe\xef\xb2\x11\xa1:@'
p531
tp532
Rp533
sg22
g8
(g12
S'^\x1b\x1e\xa9\x19\xbb\xe6?'
p534
tp535
Rp536
sg26
I-1
sg27
I1486273
sbsS'CMS'
p537
(i__main__
Scrip
p538
(dp539
g4
S'CMS Energy'
p540
sg6
g537
sg7
g8
(g12
S'\x07\x01-8\xe5m7@'
p541
tp542
Rp543
sg18
g8
(g12
S'\xac\xce\xacp\xb6+v@'
p544
tp545
Rp546
sg22
g8
(g12
S'2u\x8ag\xe1(e@'
p547
tp548
Rp549
sg26
I-1
sg27
I2580186
sbsS'DTV'
p550
(i__main__
Scrip
p551
(dp552
g4
S'DIRECTV'
p553
sg6
g550
sg7
g8
(g12
S'\x13\xe3\xcb\xe8\x1c4/@'
p554
tp555
Rp556
sg22
g8
(g12
S'\xf2o_\xbaG\x8dp@'
p557
tp558
Rp559
sg26
I-1
sg27
I17014848
sbsS'VLO'
p560
(i__main__
Scrip
p561
(dp562
g4
S'Valero Energy'
p563
sg6
g560
sg7
g8
(g12
S"\x08\x1e\x96\xee\xa8L'@"
p564
tp565
Rp566
sg18
g8
(g12
S'5b\x92\xdfM\x8b\xfe?'
p567
tp568
Rp569
sg22
g8
(g12
S'\xe3\x90x\xb6\xaf2i@'
p570
tp571
Rp572
sg26
I-1
sg27
I9109104
sbsS'HUM'
p573
(i__main__
Scrip
p574
(dp575
g4
S'Humana Inc'
p576
sg6
g573
sg7
g8
(g12
S'\x1d\xbd9}7\xaa4@'
p577
tp578
Rp579
sg18
g8
(g12
S'\x9eQx\x92\xa9v\x84@'
p580
tp581
Rp582
sg22
g8
(g12
S'\xb9#\xee\x88;"p@'
p583
tp584
Rp585
sg26
I-1
sg27
I1092018
sbsS'LSI'
p586
(i__main__
Scrip
p587
(dp588
g4
S'LSI Corp'
p589
sg6
g586
sg7
g8
(g12
S'\xb4\xeb\x9b\xc9*\xe5L@'
p590
tp591
Rp592
sg18
g8
(g12
S'f\xd9\xe7\x90\x9a`\x14@'
p593
tp594
Rp595
sg22
g8
(g12
S"'\xb4\x97\xd0^BP@"
p596
tp597
Rp598
sg26
I-1
sg27
I2398509
sbsS'PCLN'
p599
(i__main__
Scrip
p600
(dp601
g4
S'priceline.com Inc'
p602
sg6
g599
sg7
g8
(g12
S'#A\xec\xf0\x1e\x1b*\xc0'
p603
tp604
Rp605
sg18
g8
(g12
S'@8\x11/\tf\xb1@'
p606
tp607
Rp608
sg22
g8
(g12
S'$v\xb2i\xfe{y@'
p609
tp610
Rp611
sg26
I-1
sg27
I1024467
sbsS'FSLR'
p612
(i__main__
Scrip
p613
(dp614
g4
S'First Solar'
p615
sg6
g612
sg7
g8
(g12
S'\x11\xd8\x90q\xfe\x9c;@'
p616
tp617
Rp618
sg22
g8
(g12
S'\xe6?\xb8E\x1fSE\xc0'
p619
tp620
Rp621
sg26
I-1
sg27
I1620316
sbsS'HCP'
p622
(i__main__
Scrip
p623
(dp624
g4
S'HCP Inc'
p625
sg6
g622
sg7
g8
(g12
S'w#\x04\xc9l\xc81\xc0'
p626
tp627
Rp628
sg18
g8
(g12
S'\x9fO4\xf7\xda\xcfA\xc0'
p629
tp630
Rp631
sg22
g8
(g12
S'%\x9a8*&2<@'
p632
tp633
Rp634
sg26
I-1
sg27
I3670788
sbsS'FTR'
p635
(i__main__
Scrip
p636
(dp637
g4
S'Frontier Communications'
p638
sg6
g635
sg7
g8
(g12
S'\xd3\x9eE\xa0\x03\xdb@\xc0'
p639
tp640
Rp641
sg18
g8
(g12
S'_\xb7#o\xf1\xc2O\xc0'
p642
tp643
Rp644
sg22
g8
(g12
S'\x0bqV~B\x9cC\xc0'
p645
tp646
Rp647
sg26
I-1
sg27
I25766423
sbsS'K'
p648
(i__main__
Scrip
p649
(dp650
g4
S'Kellogg Co'
p651
sg6
g648
sg7
g8
(g12
S'\xd1\xfc\xfb\xba)4)@'
p652
tp653
Rp654
sg18
g8
(g12
S'\xdf$\xef\xaf\x831U@'
p655
tp656
Rp657
sg22
g8
(g12
S'/`\xfe\xd0J\x10C@'
p658
tp659
Rp660
sg26
I-1
sg27
I2243415
sbsS'FFIV'
p661
(i__main__
Scrip
p662
(dp663
g4
S'F5 Networks'
p664
sg6
g661
sg7
g8
(g12
S'\x86\xdbw\x08\x9bB<\xc0'
p665
tp666
Rp667
sg18
g8
(g12
S'\x7f\xff\xd8\x827Bc@'
p668
tp669
Rp670
sg22
g8
(g12
S'$\x8f<\xf2\xc8\xa3U@'
p671
tp672
Rp673
sg26
I-1
sg27
I1130679
sbsS'BLL'
p674
(i__main__
Scrip
p675
(dp676
g4
S'Ball Corp'
p677
sg6
g674
sg7
g8
(g12
S';\x87Uv\x1e\x1c\xe0\xbf'
p678
tp679
Rp680
sg18
g8
(g12
S'U\xf4\x97s\xf5\xb7\xfc?'
p681
tp682
Rp683
sg22
g8
(g12
S'Q\xf6\x9a\xe2Qw>@'
p684
tp685
Rp686
sg26
I-1
sg27
I1812645
sbsS'ORLY'
p687
(i__main__
Scrip
p688
(dp689
g4
S'OReilly Automotive'
p690
sg6
g687
sg7
g8
(g12
S"'p)lb\xa3@@"
p691
tp692
Rp693
sg18
g8
(g12
S'\xa5K\x97.]\xc2~@'
p694
tp695
Rp696
sg22
g8
(g12
S'8\xc6\xb7%\xef\xa2\x80@'
p697
tp698
Rp699
sg26
I-1
sg27
I1363403
sbsS'BLK'
p700
(i__main__
Scrip
p701
(dp702
g4
S'BlackRock Inc'
p703
sg6
g700
sg7
g8
(g12
S'\xf09\xb8~\xb4\x17(\xc0'
p704
tp705
Rp706
sg18
g8
(g12
S'\x9f\xc1%i%5z@'
p707
tp708
Rp709
sg22
g8
(g12
S'^\xf2`\xc0\x19\xd7F@'
p710
tp711
Rp712
sg26
I-1
sg27
I1054732
sbsS'FTI'
p713
(i__main__
Scrip
p714
(dp715
g4
S'FMC Technologies'
p716
sg6
g713
sg7
g8
(g12
S'I\r\x97\x10\x13\xb0L\xc0'
p717
tp718
Rp719
sg18
g8
(g12
S'O\xb6\xb6\xec\xfa\\\x16\xc0'
p720
tp721
Rp722
sg22
g8
(g12
S'\xdd\x15(\xf4\x14\xd1L\xc0'
p723
tp724
Rp725
sg26
I-1
sg27
I5455828
sbsS'HCN'
p726
(i__main__
Scrip
p727
(dp728
g4
S'Health Care REIT'
p729
sg6
g726
sg7
g8
(g12
S'0C~/C~%\xc0'
p730
tp731
Rp732
sg18
g8
(g12
S'\xe8:Fq\xae\xa3R@'
p733
tp734
Rp735
sg22
g8
(g12
S'\xfeU\xc5\xf1%\xf0J@'
p736
tp737
Rp738
sg26
I-1
sg27
I3208247
sbsS'NFX'
p739
(i__main__
Scrip
p740
(dp741
g4
S'Newfield Exploration'
p742
sg6
g739
sg7
g8
(g12
S'\xb6f\x9c\x7f|`8\xc0'
p743
tp744
Rp745
sg18
g8
(g12
S'g\x92%R\xe3\xfdF\xc0'
p746
tp747
Rp748
sg22
g8
(g12
S'2<92\xf9\xc2H\xc0'
p749
tp750
Rp751
sg26
I-1
sg27
I6083219
sbsS'MA'
p752
(i__main__
Scrip
p753
(dp754
g4
S'MasterCard IncA'
p755
sg6
g752
sg7
g8
(g12
S'J\n\x03\x1f\t]\xfb\xbf'
p756
tp757
Rp758
sg22
g8
(g12
S'X\xa7EI\xfd\xb8O\xc0'
p759
tp760
Rp761
sg26
I-1
sg27
I8439593
sbsS'CBG'
p762
(i__main__
Scrip
p763
(dp764
g4
S'CBRE GroupA'
p765
sg6
g762
sg7
g8
(g12
S'$,\xd4O\xdc\xf77\xc0'
p766
tp767
Rp768
sg22
g8
(g12
S'\x16\xdeqo\xae\x08X@'
p769
tp770
Rp771
sg26
I-1
sg27
I5006912
sbsS'PRGO'
p772
(i__main__
Scrip
p773
(dp774
g4
S'Perrigo Co'
p775
sg6
g772
sg7
g8
(g12
S'\x06}\x8a\xba\x95b\x1c\xc0'
p776
tp777
Rp778
sg18
g8
(g12
S'\xa8\xb8d\x08\xd6q\x85@'
p779
tp780
Rp781
sg22
g8
(g12
S'\x92$I\x92$\xc9j@'
p782
tp783
Rp784
sg26
I-1
sg27
I1476745
sbsS'MO'
p785
(i__main__
Scrip
p786
(dp787
g4
S'Altria Group'
p788
sg6
g785
sg7
g8
(g12
S'y\xbd\xb8-\x06F4@'
p789
tp790
Rp791
sg18
g8
(g12
S'\xa6\xe2\xa05g"\x06@'
p792
tp793
Rp794
sg22
g8
(g12
S'\x94\x85\xa6\xa1_\xeeh@'
p795
tp796
Rp797
sg26
I-1
sg27
I7438419
sbsS'NOC'
p798
(i__main__
Scrip
p799
(dp800
g4
S'Northrop Grumman'
p801
sg6
g798
sg7
g8
(g12
S'\x159\x89\xad;\xbd?@'
p802
tp803
Rp804
sg18
g8
(g12
S'\xe2\x8c\x7f#w,W@'
p805
tp806
Rp807
sg22
g8
(g12
S'=r\xc0\xbc\xcbLi@'
p808
tp809
Rp810
sg26
I-1
sg27
I1806985
sbsS'MU'
p811
(i__main__
Scrip
p812
(dp813
g4
S'Micron Technology'
p814
sg6
g811
sg7
g8
(g12
S'\\nf\xe3\xc7\xa6P\xc0'
p815
tp816
Rp817
sg18
g8
(g12
S'<\x1f\xe2\x8bB\x0e;\xc0'
p818
tp819
Rp820
sg22
g8
(g12
S'\x11\xfdf\xeb\xd0o:@'
p821
tp822
Rp823
sg26
I-1
sg27
I22364549
sbsS'CBS'
p824
(i__main__
Scrip
p825
(dp826
g4
S'CBS Corp B'
p827
sg6
g824
sg7
g8
(g12
S'h\xe0\xe9\xd6\xfc\x90%\xc0'
p828
tp829
Rp830
sg22
g8
(g12
S'\x8c.\xba\xe8\xa2\x8bm@'
p831
tp832
Rp833
sg26
I-1
sg27
I6095117
sbsS'NDAQ'
p834
(i__main__
Scrip
p835
(dp836
g4
S'Nasdaq OMX Group'
p837
sg6
g834
sg7
g8
(g12
S'\xae\r\xa2D\xde\xd2A@'
p838
tp839
Rp840
sg18
g8
(g12
S"m*\x9a'\xd4b\x81@"
p841
tp842
Rp843
sg22
g8
(g12
S'\xf1\xf0\xf0\xf0\xf0\xf0k@'
p844
tp845
Rp846
sg26
I-1
sg27
I1884839
sbsS'SE'
p847
(i__main__
Scrip
p848
(dp849
g4
S'Spectra Energy'
p850
sg6
g847
sg7
g8
(g12
S'\xc6\x1f\xea\xcbw\xec8\xc0'
p851
tp852
Rp853
sg22
g8
(g12
S'\x0f\xb4\x11\x9c\xe6&A@'
p854
tp855
Rp856
sg26
I-1
sg27
I8798893
sbsS'MS'
p857
(i__main__
Scrip
p858
(dp859
g4
S'Morgan Stanley'
p860
sg6
g857
sg7
g8
(g12
S'J\x92$I\x92\x07@\xc0'
p861
tp862
Rp863
sg18
g8
(g12
S'\x9a\x8e\xb9Dx\x92M\xc0'
p864
tp865
Rp866
sg22
g8
(g12
S'\xad\xee\xb4\xba\xd3\xea \xc0'
p867
tp868
Rp869
sg26
I-1
sg27
I16071121
sbsS'TJX'
p870
(i__main__
Scrip
p871
(dp872
g4
S'TJX Companies'
p873
sg6
g870
sg7
g8
(g12
S'\x89\xa9Gh\xac\x8c\x1a@'
p874
tp875
Rp876
sg18
g8
(g12
S'\xc1\xf9i\xe8\x02=g@'
p877
tp878
Rp879
sg22
g8
(g12
S'\x84\xbaN&w\xd5R@'
p880
tp881
Rp882
sg26
I-1
sg27
I4581264
sbsS'NOV'
p883
(i__main__
Scrip
p884
(dp885
g4
S'Natl Oilwell Varco'
p886
sg6
g883
sg7
g8
(g12
S'\xdb\x03o9\xd4\x86N\xc0'
p887
tp888
Rp889
sg18
g8
(g12
S'\x04\xfc\xec-\x00e\xcf\xbf'
p890
tp891
Rp892
sg22
g8
(g12
S'\x9bj\xdd\xd9*\xa0A\xc0'
p893
tp894
Rp895
sg26
I-1
sg27
I10255573
sbsS'AMGN'
p896
(i__main__
Scrip
p897
(dp898
g4
S'Amgen Inc'
p899
sg6
g896
sg7
g8
(g12
S'\xaf\xe1,\x0cw\xa8#\xc0'
p900
tp901
Rp902
sg18
g8
(g12
S'e\xf9\x13\xd0\r\x05`@'
p903
tp904
Rp905
sg22
g8
(g12
S'\x82\x91\x8a\x06\x95\x03c@'
p906
tp907
Rp908
sg26
I-1
sg27
I6267823
sbsS'COST'
p909
(i__main__
Scrip
p910
(dp911
g4
S'Costco Wholesale'
p912
sg6
g909
sg7
g8
(g12
S' \xd2)\xba\xb7s\x0e@'
p913
tp914
Rp915
sg18
g8
(g12
S"\xd9s\xa4\x12\xc8'q@"
p916
tp917
Rp918
sg22
g8
(g12
S'R[Im%ub@'
p919
tp920
Rp921
sg26
I-1
sg27
I4007201
sbsS'FE'
p922
(i__main__
Scrip
p923
(dp924
g4
S'FirstEnergy Corp'
p925
sg6
g922
sg7
g8
(g12
S'\xac\x9a\xab\xb9\x9a\xab\x1d\xc0'
p926
tp927
Rp928
sg18
g8
(g12
S',\x89e\xea\xe3A&\xc0'
p929
tp930
Rp931
sg22
g8
(g12
S'"\xfa\x80\xea\xd8\x9b3\xc0'
p932
tp933
Rp934
sg26
I-1
sg27
I5770077
sbsS'CTL'
p935
(i__main__
Scrip
p936
(dp937
g4
S'CenturyLink Inc'
p938
sg6
g935
sg7
g8
(g12
S'_B{\t\xed%A\xc0'
p939
tp940
Rp941
sg18
g8
(g12
S'\xa95oc\xd4\xab"\xc0'
p942
tp943
Rp944
sg22
g8
(g12
S'\x15\x0f~\xd8\xcc\xdf4\xc0'
p945
tp946
Rp947
sg26
I-1
sg27
I8620402
sbsS'DPS'
p948
(i__main__
Scrip
p949
(dp950
g4
S'Dr. Pepper Snapple Group'
p951
sg6
g948
sg7
g8
(g12
S'\x0e\x17z\xdfd\x1e<@'
p952
tp953
Rp954
sg22
g8
(g12
S'0O\x8a\xfe\x97Mk@'
p955
tp956
Rp957
sg26
I-1
sg27
I1626209
sbsS'DOV'
p958
(i__main__
Scrip
p959
(dp960
g4
S'Dover Corp'
p961
sg6
g958
sg7
g8
(g12
S'\xa6\xf1\x91\t\xf4N9\xc0'
p962
tp963
Rp964
sg18
g8
(g12
S'9\xa4&\x18oeI@'
p965
tp966
Rp967
sg22
g8
(g12
S's\xe1\x12V\xf9;F@'
p968
tp969
Rp970
sg26
I-1
sg27
I1493035
sbsS'DOW'
p971
(i__main__
Scrip
p972
(dp973
g4
S'Dow Chemical'
p974
sg6
g971
sg7
g8
(g12
S'\x04!Vy\xf2\x9b"\xc0'
p975
tp976
Rp977
sg18
g8
(g12
S'\x83\x14\x16l\x1b\x82 @'
p978
tp979
Rp980
sg22
g8
(g12
S'!\x14\xa1\x08E\xf8O@'
p981
tp982
Rp983
sg26
I-1
sg27
I7979364
sbsS'MSFT'
p984
(i__main__
Scrip
p985
(dp986
g4
S'Microsoft Corp'
p987
sg6
g984
sg7
g8
(g12
S'\xa3Q\xd0\x1b\x05\xbd\xf1?'
p988
tp989
Rp990
sg18
g8
(g12
S'm\xdb\xb6m\xdb\xa6U@'
p991
tp992
Rp993
sg22
g8
(g12
S'\xcf\xf3<\xcf\xf3<T@'
p994
tp995
Rp996
sg26
I-1
sg27
I59436090
sbsS'GLW'
p997
(i__main__
Scrip
p998
(dp999
g4
S'Corning Inc'
p1000
sg6
g997
sg7
g8
(g12
S'6\xee\xef\xcd2\xe3&\xc0'
p1001
tp1002
Rp1003
sg18
g8
(g12
S'E]QW\xd4\x15E@'
p1004
tp1005
Rp1006
sg22
g8
(g12
S'\xee\xf8\xf1\xe3\xc7\x8f\xdf?'
p1007
tp1008
Rp1009
sg26
I-1
sg27
I16772076
sbsS'SCHW'
p1010
(i__main__
Scrip
p1011
(dp1012
g4
S'Schwab(Charles)Corp'
p1013
sg6
g1010
sg7
g8
(g12
S's\x07\x89o\x07\x89/\xc0'
p1014
tp1015
Rp1016
sg18
g8
(g12
S'E\x9e\x10\xfa8\x10V@'
p1017
tp1018
Rp1019
sg22
g8
(g12
S'\xa6\x15=\xdaS\r@@'
p1020
tp1021
Rp1022
sg26
I-1
sg27
I10783441
sbsS'BSX'
p1023
(i__main__
Scrip
p1024
(dp1025
g4
S'Boston Scientific'
p1026
sg6
g1023
sg7
g8
(g12
S'\xba@1\xd6\xf6\xef7@'
p1027
tp1028
Rp1029
sg18
g8
(g12
S'7\xd2&b\x9c/N\xc0'
p1030
tp1031
Rp1032
sg22
g8
(g12
S'7:\x9bHl\xcbY@'
p1033
tp1034
Rp1035
sg26
I-1
sg27
I16835104
sbsS'FCX'
p1036
(i__main__
Scrip
p1037
(dp1038
g4
S'Freept McMoRan Copper&Go'
p1039
sg6
g1036
sg7
g8
(g12
S'Uy\xa8\x16\xa4\xeeS\xc0'
p1040
tp1041
Rp1042
sg18
g8
(g12
S'\x8f\xd4\xebH\xbd\x8eU\xc0'
p1043
tp1044
Rp1045
sg22
g8
(g12
S'\r\xb8q\x89\xa9\nW\xc0'
p1046
tp1047
Rp1048
sg26
I-1
sg27
I71686293
sbsS'HSP'
p1049
(i__main__
Scrip
p1050
(dp1051
g4
S'Hospira Inc'
p1052
sg6
g1049
sg7
g8
(g12
S'k\x03\xa6\x7fE\x1cS@'
p1053
tp1054
Rp1055
sg22
g8
(g12
S'\xb9\xd48\xf9\xe6\x1f`@'
p1056
tp1057
Rp1058
sg26
I-1
sg27
I12481128
sbsS'BDX'
p1059
(i__main__
Scrip
p1060
(dp1061
g4
S'Becton, Dickinson'
p1062
sg6
g1059
sg7
g8
(g12
S'\xe5\xda\xc0\xbdZ)\x14@'
p1063
tp1064
Rp1065
sg18
g8
(g12
S'\x8bq\x9bOV\x16f@'
p1066
tp1067
Rp1068
sg22
g8
(g12
S'~\x8be\xfe\\\x1eS@'
p1069
tp1070
Rp1071
sg26
I-1
sg27
I1222707
sbsS'WHR'
p1072
(i__main__
Scrip
p1073
(dp1074
g4
S'Whirlpool Corp'
p1075
sg6
g1072
sg7
g8
(g12
S'{\x81\xce_\x88\xb24\xc0'
p1076
tp1077
Rp1078
sg18
g8
(g12
S'\x0fj!4gpV@'
p1079
tp1080
Rp1081
sg22
g8
(g12
S'J%bJ\xbdLT@'
p1082
tp1083
Rp1084
sg26
I-1
sg27
I884686
sbsS'BBBY'
p1085
(i__main__
Scrip
p1086
(dp1087
g4
S'Bed Bath & Beyond'
p1088
sg6
g1085
sg7
g8
(g12
S'\x83\xf1Q\xe0\x12\xfaB\xc0'
p1089
tp1090
Rp1091
sg18
g8
(g12
S'i\xbb\x8aU\xab\x8a\x18@'
p1092
tp1093
Rp1094
sg22
g8
(g12
S'\x14\x97\x16 \xdc\xb2!@'
p1095
tp1096
Rp1097
sg26
I-1
sg27
I2484093
sbsS'MDT'
p1098
(i__main__
Scrip
p1099
(dp1100
g4
S'Medtronic, Inc'
p1101
sg6
g1098
sg7
g8
(g12
S'\xdb\x82\xb5\x84\xaf\x19\x0e@'
p1102
tp1103
Rp1104
sg18
g8
(g12
S'\xba\xaf\x05\xe1\xa3\xc2L@'
p1105
tp1106
Rp1107
sg22
g8
(g12
S":o\x8d\xea'RR@"
p1108
tp1109
Rp1110
sg26
I-1
sg27
I4635577
sbsS'ZMH'
p1111
(i__main__
Scrip
p1112
(dp1113
g4
S'Zimmer Holdings'
p1114
sg6
g1111
sg7
g8
(g12
S'\xe0\x1b\x11V\x05\x1a6@'
p1115
tp1116
Rp1117
sg18
g8
(g12
S'6\x02\xb1\xba\x87\xebb@'
p1118
tp1119
Rp1120
sg22
g8
(g12
S'\x16\xc1\x85-\x1e\xfaf@'
p1121
tp1122
Rp1123
sg26
I-1
sg27
I1226343
sbsS'F'
p1124
(i__main__
Scrip
p1125
(dp1126
g4
S'Ford Motor'
p1127
sg6
g1124
sg7
g8
(g12
S'\x8f&lV1\xee:\xc0'
p1128
tp1129
Rp1130
sg18
g8
(g12
S'D\x07\xec\xf6X\xcb2\xc0'
p1131
tp1132
Rp1133
sg22
g8
(g12
S'<\x1bHr\xc8\xac\xf6?'
p1134
tp1135
Rp1136
sg26
I-1
sg27
I33148173
sbsS'DFS'
p1137
(i__main__
Scrip
p1138
(dp1139
g4
S'Discover Financial Svcs'
p1140
sg6
g1137
sg7
g8
(g12
S'\x8c\x93\xf1\\MS>\xc0'
p1141
tp1142
Rp1143
sg22
g8
(g12
S'~s\xf4\xcd\xd1\xf7n@'
p1144
tp1145
Rp1146
sg26
I-1
sg27
I5314470
sbsS'KRFT'
p1147
(i__main__
Scrip
p1148
(dp1149
g6
g1147
sg27
I3826353
sg7
g8
(g12
S'/\xda\xfc\xbdktK@'
p1150
tp1151
Rp1152
sg4
S'Kraft Foods Group'
p1153
sg26
I-1
sbsS'JEC'
p1154
(i__main__
Scrip
p1155
(dp1156
g4
S'Jacobs Engr Group'
p1157
sg6
g1154
sg7
g8
(g12
S'\x00\x0b\xcf\xc0\x96\xf75\xc0'
p1158
tp1159
Rp1160
sg18
g8
(g12
S'\x988\xfe\xb5_Z,\xc0'
p1161
tp1162
Rp1163
sg22
g8
(g12
S'0\xa7nNF\x1b\x02@'
p1164
tp1165
Rp1166
sg26
I-1
sg27
I1701303
sbsS'LTD'
p1167
(i__main__
Scrip
p1168
(dp1169
g4
S'L Brands'
p1170
sg6
g1167
sg7
g8
(g12
S'\x00\x0b\xcf\xc0\x96\xf75\xc0'
p1171
tp1172
Rp1173
sg18
g8
(g12
S'\x988\xfe\xb5_Z,\xc0'
p1174
tp1175
Rp1176
sg22
g8
(g12
S'0\xa7nNF\x1b\x02@'
p1177
tp1178
Rp1179
sg26
I-1
sg27
I1701303
sbsS'FMC'
p1180
(i__main__
Scrip
p1181
(dp1182
g4
S'FMC Corp'
p1183
sg6
g1180
sg7
g8
(g12
S'\xa7#g\xf0\xc5wA\xc0'
p1184
tp1185
Rp1186
sg18
g8
(g12
S"'\xd2\t\xc7\xb0\xfe\x15\xc0"
p1187
tp1188
Rp1189
sg22
g8
(g12
S'\xf4\x9b\xadC\xbf\xd1@\xc0'
p1190
tp1191
Rp1192
sg26
I-1
sg27
I1021194
sbsS'MPC'
p1193
(i__main__
Scrip
p1194
(dp1195
g6
g1193
sg27
I15516777
sg7
g8
(g12
S'Q9O\xdcg\tP\xc0'
p1196
tp1197
Rp1198
sg4
S'Marathon Petroleum'
p1199
sg26
I-1
sbsS'ALL'
p1200
(i__main__
Scrip
p1201
(dp1202
g4
S'Allstate Corp'
p1203
sg6
g1200
sg7
g8
(g12
S'\xac\xb3\x9ae(8\x15\xc0'
p1204
tp1205
Rp1206
sg18
g8
(g12
S'\xc8\xce\xb0_\x0c\x11B@'
p1207
tp1208
Rp1209
sg22
g8
(g12
S'\x02\x90*\xf768^@'
p1210
tp1211
Rp1212
sg26
I-1
sg27
I4608763
sbsS'NTAP'
p1213
(i__main__
Scrip
p1214
(dp1215
g4
S'NetApp Inc'
p1216
sg6
g1213
sg7
g8
(g12
S'\xd6\x9b\xe6\x86\x86rF\xc0'
p1217
tp1218
Rp1219
sg18
g8
(g12
S'l6\xbd$\xdbq\x0e@'
p1220
tp1221
Rp1222
sg22
g8
(g12
S'\x82.\x85AoA8\xc0'
p1223
tp1224
Rp1225
sg26
I-1
sg27
I4009591
sbsS'LMT'
p1226
(i__main__
Scrip
p1227
(dp1228
g4
S'Lockheed Martin'
p1229
sg6
g1226
sg7
g8
(g12
S'\xd3\n?@G\x87*@'
p1230
tp1231
Rp1232
sg18
g8
(g12
S'\xf6\xae\xb84\x9b\x15u@'
p1233
tp1234
Rp1235
sg22
g8
(g12
S'\xfc\x7f.\xf3\x7f\x0bf@'
p1236
tp1237
Rp1238
sg26
I-1
sg27
I1886441
sbsS'MMM'
p1239
(i__main__
Scrip
p1240
(dp1241
g4
S'3M Co'
p1242
sg6
g1239
sg7
g8
(g12
S'N\xd2\xea\xb9|\xa7\x08\xc0'
p1243
tp1244
Rp1245
sg18
g8
(g12
S'\xa5}\xffKq\xb2V@'
p1246
tp1247
Rp1248
sg22
g8
(g12
S'4I+\xd8\xd4\xd9W@'
p1249
tp1250
Rp1251
sg26
I-1
sg27
I3354746
sbsS'SO'
p1252
(i__main__
Scrip
p1253
(dp1254
g4
S'Southern Co'
p1255
sg6
g1252
sg7
g8
(g12
S'\x9a(I\xb0\x80 \x0e@'
p1256
tp1257
Rp1258
sg18
g8
(g12
S'\x08\x8e\xaf?x\xebL@'
p1259
tp1260
Rp1261
sg22
g8
(g12
S'\x95\xa2\xed38\x8dH@'
p1262
tp1263
Rp1264
sg26
I-1
sg27
I8719056
sbsS'JNPR'
p1265
(i__main__
Scrip
p1266
(dp1267
g4
S'Juniper Networks'
p1268
sg6
g1265
sg7
g8
(g12
S"\xccx\x97>\xfc\xf5'@"
p1269
tp1270
Rp1271
sg18
g8
(g12
S'\x97\x98\xb73$\xe6\x1d\xc0'
p1272
tp1273
Rp1274
sg22
g8
(g12
S'\xd6\xcc\xb5UZ# \xc0'
p1275
tp1276
Rp1277
sg26
I-1
sg27
I7406392
sbsS'MMC'
p1278
(i__main__
Scrip
p1279
(dp1280
g4
S'Marsh & McLennan'
p1281
sg6
g1278
sg7
g8
(g12
S'\xb3\xe7\xe2\x18H\xba\x02\xc0'
p1282
tp1283
Rp1284
sg18
g8
(g12
S'\xb9\t{\xe1\xa1\xcd+@'
p1285
tp1286
Rp1287
sg22
g8
(g12
S'Y\xc6\xf6;zEb@'
p1288
tp1289
Rp1290
sg26
I-1
sg27
I3937650
sbsS'CTSH'
p1291
(i__main__
Scrip
p1292
(dp1293
g4
S'Cognizant Tech Solutions'
p1294
sg6
g1291
sg7
g8
(g12
S'\x05\xda\xc7\xa8\xc0J#@'
p1295
tp1296
Rp1297
sg18
g8
(g12
S'\x10na\x9ck*9@'
p1298
tp1299
Rp1300
sg22
g8
(g12
S'\xe6\xcd\x83\x0e\x0c\xeb@@'
p1301
tp1302
Rp1303
sg26
I-1
sg27
I7365727
sbsS'ADBE'
p1304
(i__main__
Scrip
p1305
(dp1306
g4
S'Adobe Systems'
p1307
sg6
g1304
sg7
g8
(g12
S'\xbf\xe3\xc5\x96\xe0\xdb$@'
p1308
tp1309
Rp1310
sg18
g8
(g12
S'\xd1=\xc6\xcb\n0[@'
p1311
tp1312
Rp1313
sg22
g8
(g12
S'z\xc0\x8b\xcc\n5b@'
p1314
tp1315
Rp1316
sg26
I-1
sg27
I10528338
sbsS'IBM'
p1317
(i__main__
Scrip
p1318
(dp1319
g4
S'Intl Bus. Machines'
p1320
sg6
g1317
sg7
g8
(g12
S'\x83\x17?\xcc\\\x055\xc0'
p1321
tp1322
Rp1323
sg18
g8
(g12
S'\xd0\xbb\xe0\xfa\xcf\xfd@@'
p1324
tp1325
Rp1326
sg22
g8
(g12
S'\x111\x9bK\x87Z\x10@'
p1327
tp1328
Rp1329
sg26
I-1
sg27
I7149706
sbsS'BAX'
p1330
(i__main__
Scrip
p1331
(dp1332
g4
S'Baxter Intl'
p1333
sg6
g1330
sg7
g8
(g12
S'\x04O.\xc0P\x82G\xc0'
p1334
tp1335
Rp1336
sg18
g8
(g12
S'\\\x96`k)n;@'
p1337
tp1338
Rp1339
sg22
g8
(g12
S'Tc\xbb\xf2\x91\xba@\xc0'
p1340
tp1341
Rp1342
sg26
I-1
sg27
I5016183
sbsS'CAT'
p1343
(i__main__
Scrip
p1344
(dp1345
g4
S'Caterpillar Inc'
p1346
sg6
g1343
sg7
g8
(g12
S' \xc3\x1d\xb8z\xc1A\xc0'
p1347
tp1348
Rp1349
sg18
g8
(g12
S'E\xb5C\xcf\x12\x9b/\xc0'
p1350
tp1351
Rp1352
sg22
g8
(g12
S'\x05\x85\x9e"\xea\xd77@'
p1353
tp1354
Rp1355
sg26
I-1
sg27
I7425564
sbsS'CAH'
p1356
(i__main__
Scrip
p1357
(dp1358
g4
S'Cardinal Health'
p1359
sg6
g1356
sg7
g8
(g12
S'\xcaP\xf6+\x7f\xaa\x12\xc0'
p1360
tp1361
Rp1362
sg18
g8
(g12
S'\xd3\xf3\xc1v*r1@'
p1363
tp1364
Rp1365
sg22
g8
(g12
S'\xd0\x84?\x13\xfeL`@'
p1366
tp1367
Rp1368
sg26
I-1
sg27
I2911386
sbsS'BAC'
p1369
(i__main__
Scrip
p1370
(dp1371
g4
S'Bank of America'
p1372
sg6
g1369
sg7
g8
(g12
S'4L\xa3L8r9\xc0'
p1373
tp1374
Rp1375
sg18
g8
(g12
S'\xa6\xad?\xaf\xf0\x07U\xc0'
p1376
tp1377
Rp1378
sg22
g8
(g12
S'\xcd\xb7|\xcb\xb7\xfc0\xc0'
p1379
tp1380
Rp1381
sg26
I-1
sg27
I121338440
sbsS'CAM'
p1382
(i__main__
Scrip
p1383
(dp1384
g4
S'Cameron Intl'
p1385
sg6
g1382
sg7
g8
(g12
S'\xba\x7f\x10\x01\xbe\xfb!@'
p1386
tp1387
Rp1388
sg18
g8
(g12
S'\xf0*\x0c]\x9aIG@'
p1389
tp1390
Rp1391
sg22
g8
(g12
S")>r\xe5P'Q@"
p1392
tp1393
Rp1394
sg26
I-1
sg27
I11523854
sbsS'GS'
p1395
(i__main__
Scrip
p1396
(dp1397
g4
S'Goldman Sachs Group'
p1398
sg6
g1395
sg7
g8
(g12
S'U\x82\x8b\x1a\xae\xb91\xc0'
p1399
tp1400
Rp1401
sg18
g8
(g12
S'\xd9\xd1\x881\xd0WG@'
p1402
tp1403
Rp1404
sg22
g8
(g12
S'\xf6\xed7\x8d\x9f\xf9\xf7?'
p1405
tp1406
Rp1407
sg26
I-1
sg27
I4586715
sbsS'CAG'
p1408
(i__main__
Scrip
p1409
(dp1410
g4
S'ConAgra Foods'
p1411
sg6
g1408
sg7
g8
(g12
S'\x99\xc5t\x16\xd3Y.@'
p1412
tp1413
Rp1414
sg18
g8
(g12
S'\x94\xd8W\xabKYH@'
p1415
tp1416
Rp1417
sg22
g8
(g12
S'\x95\xb5g5\xd3-S@'
p1418
tp1419
Rp1420
sg26
I-1
sg27
I3046066
sbsS'LO'
p1421
(i__main__
Scrip
p1422
(dp1423
g4
S'Lorillard Inc'
p1424
sg6
g1421
sg7
g8
(g12
S'\xacb\xa6\x1e\x93(B@'
p1425
tp1426
Rp1427
sg22
g8
(g12
S'\x91\xb8\xa9C\xe9\xca!@'
p1428
tp1429
Rp1430
sg26
I-1
sg27
I3629641
sbsS'LM'
p1431
(i__main__
Scrip
p1432
(dp1433
g4
S'Legg Mason Inc'
p1434
sg6
g1431
sg7
g8
(g12
S'f\xd3\x9f\x18\xbd\xefH\xc0'
p1435
tp1436
Rp1437
sg18
g8
(g12
S'q\xda\x18i\x19|Q\xc0'
p1438
tp1439
Rp1440
sg22
g8
(g12
S"\xd5\xdd21'\xeb(@"
p1441
tp1442
Rp1443
sg26
I-1
sg27
I1274822
sbsS'TE'
p1444
(i__main__
Scrip
p1445
(dp1446
g4
S'TECO Energy'
p1447
sg6
g1444
sg7
g8
(g12
S'U\xd87\x82Y\x85C@'
p1448
tp1449
Rp1450
sg18
g8
(g12
S'\xaf\x10dX\x12nS@'
p1451
tp1452
Rp1453
sg22
g8
(g12
S'\t\xba\n\x03\xd3\xa6Q@'
p1454
tp1455
Rp1456
sg26
I-1
sg27
I3111150
sbsS'LH'
p1457
(i__main__
Scrip
p1458
(dp1459
g4
S'Laboratory Corp Amer Hldg'
p1460
sg6
g1457
sg7
g8
(g12
S'\n\x17\xd5;\xd4\xbe\x11@'
p1461
tp1462
Rp1463
sg18
g8
(g12
S'_\xec\x08Y\x1d\xc4e@'
p1464
tp1465
Rp1466
sg22
g8
(g12
S'\xd8]|Y\x81\xc1E@'
p1467
tp1468
Rp1469
sg26
I-1
sg27
I783622
sbsS'PGR'
p1470
(i__main__
Scrip
p1471
(dp1472
g4
S'Progressive Corp,Ohio'
p1473
sg6
g1470
sg7
g8
(g12
S'\xc2\x00<q\xc6\x91)@'
p1474
tp1475
Rp1476
sg18
g8
(g12
S'W\xf3\xb6\xde\x0f\x17P\xc0'
p1477
tp1478
Rp1479
sg22
g8
(g12
S"\x03'\xd6\xae\xe6\xa5S@"
p1480
tp1481
Rp1482
sg26
I-1
sg27
I3742690
sbsS'HIG'
p1483
(i__main__
Scrip
p1484
(dp1485
g4
S'Hartford Finl Svcs Gp'
p1486
sg6
g1483
sg7
g8
(g12
S'\xbea\xdc\xbeZ\x12\xfa?'
p1487
tp1488
Rp1489
sg18
g8
(g12
S'#\x03\x94O\x1b\xeeB\xc0'
p1490
tp1491
Rp1492
sg22
g8
(g12
S'\x06`(k\x813R@'
p1493
tp1494
Rp1495
sg26
I-1
sg27
I6155398
sbsS'CELG'
p1496
(i__main__
Scrip
p1497
(dp1498
g4
S'Celgene Corp'
p1499
sg6
g1496
sg7
g8
(g12
S'\x04%\xe8LXx"\xc0'
p1500
tp1501
Rp1502
sg18
g8
(g12
S'2\x13\xba~\xfb\xb4b@'
p1503
tp1504
Rp1505
sg22
g8
(g12
S'\xadi\x9f\xa7:\xf8P@'
p1506
tp1507
Rp1508
sg26
I-1
sg27
I7662293
sbsS'A'
p1509
(i__main__
Scrip
p1510
(dp1511
g4
S'Agilent Technologies'
p1512
sg6
g1509
sg7
g8
(g12
S'\xb5\xf5Ex4Z/\xc0'
p1513
tp1514
Rp1515
sg18
g8
(g12
S"#\x0f\n%'\x8e#@"
p1516
tp1517
Rp1518
sg22
g8
(g12
S'\xcc\xde\xcfS\xc6\xd20@'
p1519
tp1520
Rp1521
sg26
I-1
sg27
I4416979
sbsS'ABC'
p1522
(i__main__
Scrip
p1523
(dp1524
g4
S'AmerisourceBergen Corp'
p1525
sg6
g1522
sg7
g8
(g12
S'z=\xf3T\xef\xaa\x13\xc0'
p1526
tp1527
Rp1528
sg18
g8
(g12
S'\xf4\xb6\x875njH@'
p1529
tp1530
Rp1531
sg22
g8
(g12
S"\xa8\xe4\xe6'\x85\x95h@"
p1532
tp1533
Rp1534
sg26
I-1
sg27
I4849092
sbsS'ZION'
p1535
(i__main__
Scrip
p1536
(dp1537
g4
S'Zions Bancorp'
p1538
sg6
g1535
sg7
g8
(g12
S'\x9b\x86X\xb2\x1b\x19;\xc0'
p1539
tp1540
Rp1541
sg18
g8
(g12
S'{\x90\x9a\xd2\xd0\xa5O\xc0'
p1542
tp1543
Rp1544
sg22
g8
(g12
S'\xe2\xfc\xdaC.+!@'
p1545
tp1546
Rp1547
sg26
I-1
sg27
I3191844
sbsS'STI'
p1548
(i__main__
Scrip
p1549
(dp1550
g4
S'SunTrust Banks'
p1551
sg6
g1548
sg7
g8
(g12
S'#\xeak\xff\xe6\xaa+\xc0'
p1552
tp1553
Rp1554
sg18
g8
(g12
S'\x1aD\xe17\xe0\x96J\xc0'
p1555
tp1556
Rp1557
sg22
g8
(g12
S',\x86\x98\xee^\xb4D@'
p1558
tp1559
Rp1560
sg26
I-1
sg27
I4386408
sbsS'STJ'
p1561
(i__main__
Scrip
p1562
(dp1563
g4
S'St. Jude Medical'
p1564
sg6
g1561
sg7
g8
(g12
S'\xbb\r\x04\x87\xf3\x076\xc0'
p1565
tp1566
Rp1567
sg18
g8
(g12
S'\xc8,\xcd\xc3\xa4\x8d>\xc0'
p1568
tp1569
Rp1570
sg22
g8
(g12
S'\xa1l\xf0\xa6^\x93@@'
p1571
tp1572
Rp1573
sg26
I-1
sg27
I2674781
sbsS'STT'
p1574
(i__main__
Scrip
p1575
(dp1576
g4
S'State Street Corp'
p1577
sg6
g1574
sg7
g8
(g12
S'\t\xfe\xc2\xafS\x84=\xc0'
p1578
tp1579
Rp1580
sg18
g8
(g12
S'\xdc}=Ht\xa6\xce?'
p1581
tp1582
Rp1583
sg22
g8
(g12
S'\xdfS7nS\xae0@'
p1584
tp1585
Rp1586
sg26
I-1
sg27
I3236334
sbsS'ABT'
p1587
(i__main__
Scrip
p1588
(dp1589
g4
S'Abbott Laboratories'
p1590
sg6
g1587
sg7
g8
(g12
S'\x0cY\xc8B\x16\x92.\xc0'
p1591
tp1592
Rp1593
sg18
g8
(g12
S'J\x8f\x03\x8c\xd8\x9a*\xc0'
p1594
tp1595
Rp1596
sg22
g8
(g12
S'MKKKK;?\xc0'
p1597
tp1598
Rp1599
sg26
I-1
sg27
I5709082
sbsS'XOM'
p1600
(i__main__
Scrip
p1601
(dp1602
g4
S'Exxon Mobil'
p1603
sg6
g1600
sg7
g8
(g12
S'\xf3\x97\xa1\x1d\xc6\x171\xc0'
p1604
tp1605
Rp1606
sg18
g8
(g12
S'\x0fsj\xdc4hV@'
p1607
tp1608
Rp1609
sg22
g8
(g12
S'u\xb1\xf2\xdb\xd9\x005@'
p1610
tp1611
Rp1612
sg26
I-1
sg27
I26601274
sbsS'STX'
p1613
(i__main__
Scrip
p1614
(dp1615
g4
S'Seagate Technology Plc'
p1616
sg6
g1613
sg7
g8
(g12
S'n\x10*\x80\xae\xa7H\xc0'
p1617
tp1618
Rp1619
sg18
g8
(g12
S"\x0c\xaa='\xd3WS@"
p1620
tp1621
Rp1622
sg22
g8
(g12
S'\x8c2\x15\xcf5\xebP@'
p1623
tp1624
Rp1625
sg26
I-1
sg27
I7721607
sbsS'STZ'
p1626
(i__main__
Scrip
p1627
(dp1628
g4
S'Constellation BrandsA'
p1629
sg6
g1626
sg7
g8
(g12
S'\x7f\xb8\x94Y\xaf\\G@'
p1630
tp1631
Rp1632
sg18
g8
(g12
S':J\x87\xf4\x08\xadr@'
p1633
tp1634
Rp1635
sg22
g8
(g12
S'Y\xbc\xb0\xa6fN\x87@'
p1636
tp1637
Rp1638
sg26
I-1
sg27
I4860375
sbsS'BHI'
p1639
(i__main__
Scrip
p1640
(dp1641
g4
S'Baker Hughes Inc'
p1642
sg6
g1639
sg7
g8
(g12
S'\xbe\xb3Q\xdf\xd9\xa87\xc0'
p1643
tp1644
Rp1645
sg18
g8
(g12
S'\xa6\xa7\xa0\xc4\xb1_6@'
p1646
tp1647
Rp1648
sg22
g8
(g12
S'\xaa\x87\xab\x91\x7f\x8c\xe5?'
p1649
tp1650
Rp1651
sg26
I-1
sg27
I4144749
sbsS'CERN'
p1652
(i__main__
Scrip
p1653
(dp1654
g4
S'Cerner Corp'
p1655
sg6
g1652
sg7
g8
(g12
S'.2\xb3Ok\x93,\xc0'
p1656
tp1657
Rp1658
sg18
g8
(g12
S'Z\r\xc1\x99\xe2\x0f<@'
p1659
tp1660
Rp1661
sg22
g8
(g12
S'\xc7\xa8\x87\x9c\xb4\xbc;\xc0'
p1662
tp1663
Rp1664
sg26
I-1
sg27
I2261035
sbsS'RSG'
p1665
(i__main__
Scrip
p1666
(dp1667
g4
S'Republic Services'
p1668
sg6
g1665
sg7
g8
(g12
S'l\xee\xb6\xd1\xa3T%@'
p1669
tp1670
Rp1671
sg18
g8
(g12
S'z{\xafA\x9b\xfaO@'
p1672
tp1673
Rp1674
sg22
g8
(g12
S'\xb1\x1e\xb2\x0c\xdb\xa4N@'
p1675
tp1676
Rp1677
sg26
I-1
sg27
I1717988
sbsS'PNW'
p1678
(i__main__
Scrip
p1679
(dp1680
g4
S'Pinnacle West Capital'
p1681
sg6
g1678
sg7
g8
(g12
S'\xda\x18\x9a\xee`\xbf%@'
p1682
tp1683
Rp1684
sg18
g8
(g12
S'\xff\xff\xff\xff\xff\x9bS@'
p1685
tp1686
Rp1687
sg22
g8
(g12
S'\x037\x96A\xa90V@'
p1688
tp1689
Rp1690
sg26
I-1
sg27
I1847891
sbsS'AVB'
p1691
(i__main__
Scrip
p1692
(dp1693
g4
S'AvalonBay Communities'
p1694
sg6
g1691
sg7
g8
(g12
S'\xf70\xff\x91\x8fE\x14@'
p1695
tp1696
Rp1697
sg18
g8
(g12
S'\x00\x00\x00\x00\xe0\x17l@'
p1698
tp1699
Rp1700
sg22
g8
(g12
S'\xfd\xcd>\x14G\x10^@'
p1701
tp1702
Rp1703
sg26
I-1
sg27
I908593
sbsS'PNC'
p1704
(i__main__
Scrip
p1705
(dp1706
g4
S'PNC Financial Services Gr'
p1707
sg6
g1704
sg7
g8
(g12
S'9[Y\xd1f+\x15\xc0'
p1708
tp1709
Rp1710
sg18
g8
(g12
S'\x1f5gw(\x0cH@'
p1711
tp1712
Rp1713
sg22
g8
(g12
S'K\xaa1j$\xccK@'
p1714
tp1715
Rp1716
sg26
I-1
sg27
I3345858
sbsS'VFC'
p1717
(i__main__
Scrip
p1718
(dp1719
g4
S'VF Corp'
p1720
sg6
g1717
sg7
g8
(g12
S'\x96\x00\xe8\x80ji0\xc0'
p1721
tp1722
Rp1723
sg18
g8
(g12
S'F\x97\x9bp;W@@'
p1724
tp1725
Rp1726
sg22
g8
(g12
S'^\x16l\n]l4\xc0'
p1727
tp1728
Rp1729
sg26
I-1
sg27
I4761992
sbsS'GM'
p1730
(i__main__
Scrip
p1731
(dp1732
g6
g1730
sg27
I13962045
sg7
g8
(g12
S'\x85\x98\xca$VO#\xc0'
p1733
tp1734
Rp1735
sg4
S'General Motors'
p1736
sg26
I-1
sbsS'AON'
p1737
(i__main__
Scrip
p1738
(dp1739
g4
S'Aon PLC'
p1740
sg6
g1737
sg7
g8
(g12
S'^\xde_\x07cV\n@'
p1741
tp1742
Rp1743
sg18
g8
(g12
S'\x11\xac\xc5\xea\x11\xa8o@'
p1744
tp1745
Rp1746
sg22
g8
(g12
S'\xccv\x1fkhia@'
p1747
tp1748
Rp1749
sg26
I-1
sg27
I2243673
sbsS'RAI'
p1750
(i__main__
Scrip
p1751
(dp1752
g4
S'Reynolds American'
p1753
sg6
g1750
sg7
g8
(g12
S'\xca\x18\xd1\x83\xc1\xf1:\xc0'
p1754
tp1755
Rp1756
sg18
g8
(g12
S'P\xcf\xb8\xe2V\xf13\xc0'
p1757
tp1758
Rp1759
sg22
g8
(g12
S"\x19\xc2+\xdbc\xc4'\xc0"
p1760
tp1761
Rp1762
sg26
I-1
sg27
I6267212
sbsS'PRU'
p1763
(i__main__
Scrip
p1764
(dp1765
g4
S'Prudential Financial'
p1766
sg6
g1763
sg7
g8
(g12
S'\xa9\xac\xb30#Z7\xc0'
p1767
tp1768
Rp1769
sg18
g8
(g12
S'\xea{\x07Z\x15=D@'
p1770
tp1771
Rp1772
sg22
g8
(g12
S'r\x89\x14\x11\x04\xc4=@'
p1773
tp1774
Rp1775
sg26
I-1
sg27
I4605647
sbsS'RF'
p1776
(i__main__
Scrip
p1777
(dp1778
g4
S'Regions Financial'
p1779
sg6
g1776
sg7
g8
(g12
S'\xf6C\x05\x07\xb4\x9a7\xc0'
p1780
tp1781
Rp1782
sg18
g8
(g12
S'\xb9Q\xea}\xf3\xb4S\xc0'
p1783
tp1784
Rp1785
sg22
g8
(g12
S'\xc5\xec\xcf\x87\xd3\x106@'
p1786
tp1787
Rp1788
sg26
I-1
sg27
I19994841
sbsS'RL'
p1789
(i__main__
Scrip
p1790
(dp1791
g4
S'Ralph Lauren CorpA'
p1792
sg6
g1789
sg7
g8
(g12
S'\x85\x99\xd3Y\xd0\xb7I\xc0'
p1793
tp1794
Rp1795
sg18
g8
(g12
S'\x90"\xc3\x9aN\x13d@'
p1796
tp1797
Rp1798
sg22
g8
(g12
S'q\xf4\x89^ \xe4"@'
p1799
tp1800
Rp1801
sg26
I-1
sg27
I4938174
sbsS'URBN'
p1802
(i__main__
Scrip
p1803
(dp1804
g4
S'Urban Outfitters'
p1805
sg6
g1802
sg7
g8
(g12
S'\x89\x87\x87\x87\x87\x877\xc0'
p1806
tp1807
Rp1808
sg18
g8
(g12
S'y*<\x15\x9e\nG\xc0'
p1809
tp1810
Rp1811
sg22
g8
(g12
S'z\xc5\xb8n\xe9_<\xc0'
p1812
tp1813
Rp1814
sg26
I-1
sg27
I3265754
sbsS'CHK'
p1815
(i__main__
Scrip
p1816
(dp1817
g4
S'Chesapeake Energy'
p1818
sg6
g1815
sg7
g8
(g12
S'$~\x7f\x0b\xa6\xa1U\xc0'
p1819
tp1820
Rp1821
sg18
g8
(g12
S'\xd9\x1f\x06\x0bG\xe6R\xc0'
p1822
tp1823
Rp1824
sg22
g8
(g12
S'\xcc\xcb8\x18N\xe1U\xc0'
p1825
tp1826
Rp1827
sg26
I-1
sg27
I21281781
sbsS'L'
p1828
(i__main__
Scrip
p1829
(dp1830
g4
S'Loews Corp'
p1831
sg6
g1828
sg7
g8
(g12
S'\x8e<\xa9%Y\r/\xc0'
p1832
tp1833
Rp1834
sg18
g8
(g12
S'ra\xcbO5TC\xc0'
p1835
tp1836
Rp1837
sg22
g8
(g12
S'\xc6i%\xed?\x9b\x11@'
p1838
tp1839
Rp1840
sg26
I-1
sg27
I1583972
sbsS'HRS'
p1841
(i__main__
Scrip
p1842
(dp1843
g4
S'Harris Corp'
p1844
sg6
g1841
sg7
g8
(g12
S'\xbe\xabR\xb1DT\x1d@'
p1845
tp1846
Rp1847
sg18
g8
(g12
S'\x9a\x10\xd0\r\x13\xb3N@'
p1848
tp1849
Rp1850
sg22
g8
(g12
S'\x8b\xf1)\xd3\xce\xc1Q@'
p1851
tp1852
Rp1853
sg26
I-1
sg27
I1788966
sbsS'HRL'
p1854
(i__main__
Scrip
p1855
(dp1856
g4
S'Hormel Foods'
p1857
sg6
g1854
sg7
g8
(g12
S'\xb80p-&9F@'
p1858
tp1859
Rp1860
sg18
g8
(g12
S'\x17U\xa1\xabzQf@'
p1861
tp1862
Rp1863
sg22
g8
(g12
S'\xa4A\x1a\xa4A\x9aY@'
p1864
tp1865
Rp1866
sg26
I-1
sg27
I1753219
sbsS'MRO'
p1867
(i__main__
Scrip
p1868
(dp1869
g4
S'Marathon Oil'
p1870
sg6
g1867
sg7
g8
(g12
S'DC\x06A\xb9\x9cR\xc0'
p1871
tp1872
Rp1873
sg18
g8
(g12
S'Zas \xd1\nS\xc0'
p1874
tp1875
Rp1876
sg22
g8
(g12
S'\x15J\x86l;\xd5Q\xc0'
p1877
tp1878
Rp1879
sg26
I-1
sg27
I29542341
sbsS'MRK'
p1880
(i__main__
Scrip
p1881
(dp1882
g4
S'Merck & Co'
p1883
sg6
g1880
sg7
g8
(g12
S'\xf8,\xd5\xb1l\x101\xc0'
p1884
tp1885
Rp1886
sg18
g8
(g12
S'5\x15\xf8\xe2\xea\x07\xfd?'
p1887
tp1888
Rp1889
sg22
g8
(g12
S'\x9b\xc7\xb1Y:zA@'
p1890
tp1891
Rp1892
sg26
I-1
sg27
I16818156
sbsS'IPG'
p1893
(i__main__
Scrip
p1894
(dp1895
g4
S'Interpublic Grp Cos'
p1896
sg6
g1893
sg7
g8
(g12
S'\xd7B\xa6\xb6\xfa\xa7!@'
p1897
tp1898
Rp1899
sg18
g8
(g12
S'H\xe9\xf6\x95\xd5\xbb8@'
p1900
tp1901
Rp1902
sg22
g8
(g12
S'\xc2\xb5)\xef\x1b\xe3j@'
p1903
tp1904
Rp1905
sg26
I-1
sg27
I5912497
sbsS'NLSN'
p1906
(i__main__
Scrip
p1907
(dp1908
g6
g1906
sg27
I2402227
sg7
g8
(g12
S'\xbe\xcf!5\xc1x\x1e@'
p1909
tp1910
Rp1911
sg4
S'Nielsen Holdings NV'
p1912
sg26
I-1
sbsS'RHT'
p1913
(i__main__
Scrip
p1914
(dp1915
g4
S'Red Hat Inc'
p1916
sg6
g1913
sg7
g8
(g12
S'x\xef%\xda{\x89\x06@'
p1917
tp1918
Rp1919
sg18
g8
(g12
S'\x06S\xa5\xc3\xe9\x01p@'
p1920
tp1921
Rp1922
sg22
g8
(g12
S't@KY\xb8\x80^@'
p1923
tp1924
Rp1925
sg26
I-1
sg27
I3206311
sbsS'TYC'
p1926
(i__main__
Scrip
p1927
(dp1928
g4
S'Tyco Intl'
p1929
sg6
g1926
sg7
g8
(g12
S'\x87\x1f]\x83\x1f]3\xc0'
p1930
tp1931
Rp1932
sg18
g8
(g12
S'\xb2\x9cu\x9e\xf2I4@'
p1933
tp1934
Rp1935
sg22
g8
(g12
S'&\x80\xdc\x1cD\x8c\xf6\xbf'
p1936
tp1937
Rp1938
sg26
I-1
sg27
I5330443
sbsS'RHI'
p1939
(i__main__
Scrip
p1940
(dp1941
g4
S'Robert Half Intl'
p1942
sg6
g1939
sg7
g8
(g12
S'Db\x1fR\x08\xe8=\xc0'
p1943
tp1944
Rp1945
sg18
g8
(g12
S'\xea\x0f\x8a\xd3\x94VT@'
p1946
tp1947
Rp1948
sg22
g8
(g12
S'\xd0\x1fs\x94n_G@'
p1949
tp1950
Rp1951
sg26
I-1
sg27
I1558646
sbsS'APH'
p1952
(i__main__
Scrip
p1953
(dp1954
g4
S'Amphenol CorpA'
p1955
sg6
g1952
sg7
g8
(g12
S'\x1f9\xa6I\x9b\xd6\n\xc0'
p1956
tp1957
Rp1958
sg18
g8
(g12
S'F&\xe7\x86\xda\xa67\xc0'
p1959
tp1960
Rp1961
sg22
g8
(g12
S'\t_\t\xc4\xb8\x8e6@'
p1962
tp1963
Rp1964
sg26
I-1
sg27
I2637815
sbsS'ROST'
p1965
(i__main__
Scrip
p1966
(dp1967
g4
S'Ross Stores'
p1968
sg6
g1965
sg7
g8
(g12
S'\xb2\x8e\xcc\x999\x9cA\xc0'
p1969
tp1970
Rp1971
sg18
g8
(g12
S':s\xf5?\xbc\xeaQ@'
p1972
tp1973
Rp1974
sg22
g8
(g12
S'UUUUUU-@'
p1975
tp1976
Rp1977
sg26
I-1
sg27
I4282915
sbsS'APC'
p1978
(i__main__
Scrip
p1979
(dp1980
g4
S'Anadarko Petroleum'
p1981
sg6
g1978
sg7
g8
(g12
S'\x894:\x7f\x996K\xc0'
p1982
tp1983
Rp1984
sg18
g8
(g12
S'\xcb\x01\x12\xb4\x08W4\xc0'
p1985
tp1986
Rp1987
sg22
g8
(g12
S'\x82\xff\x93\x1e\xde\x88A\xc0'
p1988
tp1989
Rp1990
sg26
I-1
sg27
I8532318
sbsS'APA'
p1991
(i__main__
Scrip
p1992
(dp1993
g4
S'Apache Corp'
p1994
sg6
g1991
sg7
g8
(g12
S'\x16\xfd]F\x85\xe8F\xc0'
p1995
tp1996
Rp1997
sg18
g8
(g12
S'\x85#\xc4\xd3\x05$\xf0?'
p1998
tp1999
Rp2000
sg22
g8
(g12
S'Q\x03\x8c\xdb\xfb@N\xc0'
p2001
tp2002
Rp2003
sg26
I-1
sg27
I6390013
sbsS'APD'
p2004
(i__main__
Scrip
p2005
(dp2006
g4
S'Air Products & Chem'
p2007
sg6
g2004
sg7
g8
(g12
S'\x8c\xff\x03\x1b\x86g\x12\xc0'
p2008
tp2009
Rp2010
sg18
g8
(g12
S'\xc7\xd4\xc0\xde1\xe5e@'
p2011
tp2012
Rp2013
sg22
g8
(g12
S'\xf4\xde\x0c\x9e\x85%W@'
p2014
tp2015
Rp2016
sg26
I-1
sg27
I2059398
sbsS'KSU'
p2017
(i__main__
Scrip
p2018
(dp2019
g4
S'Kansas City Southern'
p2020
sg6
g2017
sg7
g8
(g12
S'\xcd\xdb\x16U~\xedC\xc0'
p2021
tp2022
Rp2023
sg18
g8
(g12
S'\xd7\xc4In:\x80{@'
p2024
tp2025
Rp2026
sg22
g8
(g12
S'\xa8\x1a:\xee\x83\x16c@'
p2027
tp2028
Rp2029
sg26
I-1
sg27
I1674067
sbsS'KSS'
p2030
(i__main__
Scrip
p2031
(dp2032
g4
S'Kohls Corp'
p2033
sg6
g2030
sg7
g8
(g12
S'\xf3(\xa9a\x93\xfc8\xc0'
p2034
tp2035
Rp2036
sg18
g8
(g12
S'|\xb7\x12o.\xf6/\xc0'
p2037
tp2038
Rp2039
sg22
g8
(g12
S'#\xf9PZ\xbdp-\xc0'
p2040
tp2041
Rp2042
sg26
I-1
sg27
I6676191
sbsS'WFM'
p2043
(i__main__
Scrip
p2044
(dp2045
g4
S'Whole Foods Market'
p2046
sg6
g2043
sg7
g8
(g12
S'vH;\xa4\x1d\xd2B\xc0'
p2047
tp2048
Rp2049
sg18
g8
(g12
S'\xe7\xca\x17e&\x98N\xc0'
p2050
tp2051
Rp2052
sg22
g8
(g12
S'\xb5\xf8$\xce\x10\xd2\x19@'
p2053
tp2054
Rp2055
sg26
I-1
sg27
I5548350
sbsS'WFC'
p2056
(i__main__
Scrip
p2057
(dp2058
g4
S'Wells Fargo'
p2059
sg6
g2056
sg7
g8
(g12
S'p\xa5\x86\x80\xc07%\xc0'
p2060
tp2061
Rp2062
sg18
g8
(g12
S'\x0e7\xf2\xed\xcd\xdd0\xc0'
p2063
tp2064
Rp2065
sg22
g8
(g12
S'\xa4\x86\xe4\xe8\x00\x85Q@'
p2066
tp2067
Rp2068
sg26
I-1
sg27
I23613286
sbsS'IFF'
p2069
(i__main__
Scrip
p2070
(dp2071
g4
S'Intl Flavors/Fragr'
p2072
sg6
g2069
sg7
g8
(g12
S'*@\x96@~\xa45@'
p2073
tp2074
Rp2075
sg18
g8
(g12
S'\xf41\xe2\xbdrHl@'
p2076
tp2077
Rp2078
sg22
g8
(g12
S')\x9d\xcbf\x88\x82g@'
p2079
tp2080
Rp2081
sg26
I-1
sg27
I681532
sbsS'NVDA'
p2082
(i__main__
Scrip
p2083
(dp2084
g4
S'NVIDIA Corp'
p2085
sg6
g2082
sg7
g8
(g12
S'U\xdb\x07l\x8d\x98A@'
p2086
tp2087
Rp2088
sg18
g8
(g12
S'-\xeeK6\x00\xf9"@'
p2089
tp2090
Rp2091
sg22
g8
(g12
S'\x9a`\xbc\x95}\x8eP@'
p2092
tp2093
Rp2094
sg26
I-1
sg27
I14699404
sbsS'JBL'
p2095
(i__main__
Scrip
p2096
(dp2097
g4
S'Jabil Circuit'
p2098
sg6
g2095
sg7
g8
(g12
S'\xa1!\xc1IY~\x13\xc0'
p2099
tp2100
Rp2101
sg18
g8
(g12
S'\xe9\x97\xf0}\xfdU>\xc0'
p2102
tp2103
Rp2104
sg22
g8
(g12
S'\xf6|\xa5\xb1\x1bU?@'
p2105
tp2106
Rp2107
sg26
I-1
sg27
I2768982
sbsS'RTN'
p2108
(i__main__
Scrip
p2109
(dp2110
g4
S'Raytheon Co'
p2111
sg6
g2108
sg7
g8
(g12
S'[A\x9c\xb6\x84\x156@'
p2112
tp2113
Rp2114
sg18
g8
(g12
S'g@(\xb9S\xa4r@'
p2115
tp2116
Rp2117
sg22
g8
(g12
S'\x16\x82i\xda~r`@'
p2118
tp2119
Rp2120
sg26
I-1
sg27
I2967115
sbsS'BMS'
p2121
(i__main__
Scrip
p2122
(dp2123
g4
S'Bemis Co'
p2124
sg6
g2121
sg7
g8
(g12
S'\xfd\xca\x8a\x1en\xf74@'
p2125
tp2126
Rp2127
sg18
g8
(g12
S'rk2\xf8\xb1\xf3U@'
p2128
tp2129
Rp2130
sg22
g8
(g12
S"?\xc5'\x1a6\nQ@"
p2131
tp2132
Rp2133
sg26
I-1
sg27
I1344218
sbsS'BMY'
p2134
(i__main__
Scrip
p2135
(dp2136
g4
S'Bristol-Myers Squibb'
p2137
sg6
g2134
sg7
g8
(g12
S'\x0e\xb2\x97\xc3Z:\x18@'
p2138
tp2139
Rp2140
sg18
g8
(g12
S'\x19\x84QH\xd2\xbc]@'
p2141
tp2142
Rp2143
sg22
g8
(g12
S'\x8c\xa1\xea\x1d\xd6\xedc@'
p2144
tp2145
Rp2146
sg26
I-1
sg27
I10060505
sbsS'AFL'
p2147
(i__main__
Scrip
p2148
(dp2149
g4
S'AFLAC Inc'
p2150
sg6
g2147
sg7
g8
(g12
S'\x14f\xe7\x18\xc0\x05\xfb\xbf'
p2151
tp2152
Rp2153
sg18
g8
(g12
S'0\x11\x131\x11\x13E@'
p2154
tp2155
Rp2156
sg22
g8
(g12
S'H\x83\x02=\x1b\x8b,@'
p2157
tp2158
Rp2159
sg26
I-1
sg27
I2276936
sbsS'EL'
p2160
(i__main__
Scrip
p2161
(dp2162
g4
S'Lauder (Estee) Co'
p2163
sg6
g2160
sg7
g8
(g12
S"'k\xf0\xb2\xcaK9@"
p2164
tp2165
Rp2166
sg18
g8
(g12
S'\x02\x05\xf0\xa2x\xaf^@'
p2167
tp2168
Rp2169
sg22
g8
(g12
S'\xdb\xfa\xb2|NyO@'
p2170
tp2171
Rp2172
sg26
I-1
sg27
I4445497
sbsS'PAYX'
p2173
(i__main__
Scrip
p2174
(dp2175
g4
S'Paychex Inc'
p2176
sg6
g2173
sg7
g8
(g12
S'[\x9a\xc3h\xfdO\xea\xbf'
p2177
tp2178
Rp2179
sg18
g8
(g12
S'\xb3\xb5L\xdb]\x18C@'
p2180
tp2181
Rp2182
sg22
g8
(g12
S'\x11?\xa3\xc4\xcf(O@'
p2183
tp2184
Rp2185
sg26
I-1
sg27
I3644913
sbsS'OXY'
p2186
(i__main__
Scrip
p2187
(dp2188
g4
S'Occidental Petroleum'
p2189
sg6
g2186
sg7
g8
(g12
S'\xc0\xd7\xe2b\x06\x19:\xc0'
p2190
tp2191
Rp2192
sg18
g8
(g12
S'\x13?\xa3\xc4\xcf H@'
p2193
tp2194
Rp2195
sg22
g8
(g12
S'9!\xb0\xd3\x96K2\xc0'
p2196
tp2197
Rp2198
sg26
I-1
sg27
I6304624
sbsS'SHW'
p2199
(i__main__
Scrip
p2200
(dp2201
g4
S'Sherwin-Williams'
p2202
sg6
g2199
sg7
g8
(g12
S'\x08.T\x1d\x03d @'
p2203
tp2204
Rp2205
sg18
g8
(g12
S'p)\xe5\xee&@\x83@'
p2206
tp2207
Rp2208
sg22
g8
(g12
S'\xa8+\x87\xea\x90\x85r@'
p2209
tp2210
Rp2211
sg26
I-1
sg27
I1058599
sbsS'GCI'
p2212
(i__main__
Scrip
p2213
(dp2214
g4
S'Gannett Co'
p2215
sg6
g2212
sg7
g8
(g12
S'\xc9\xfdx\xd4\xa0\xd2@@'
p2216
tp2217
Rp2218
sg18
g8
(g12
S'\xaa\xaa\xaa\xaa\xaa\xd8I\xc0'
p2219
tp2220
Rp2221
sg22
g8
(g12
S'\x93\x1fJ\xc4\x1a\xf5\x8b@'
p2222
tp2223
Rp2224
sg26
I-1
sg27
I1685562
sbsS'ED'
p2225
(i__main__
Scrip
p2226
(dp2227
g4
S'Consolidated Edison'
p2228
sg6
g2225
sg7
g8
(g12
S'f;\xa0fh\n+@'
p2229
tp2230
Rp2231
sg18
g8
(g12
S'\xcf\xf0\x9c\xe9\x9e\x9aO@'
p2232
tp2233
Rp2234
sg22
g8
(g12
S'1\x9ez\xbe\x03(P@'
p2235
tp2236
Rp2237
sg26
I-1
sg27
I2516018
sbsS'EA'
p2238
(i__main__
Scrip
p2239
(dp2240
g4
S'Electronic Arts'
p2241
sg6
g2238
sg7
g8
(g12
S'W\xeb\xbc\xfb\xc9\xf4@@'
p2242
tp2243
Rp2244
sg18
g8
(g12
S'N\x90\x13\xb1\x07\xd64@'
p2245
tp2246
Rp2247
sg22
g8
(g12
S'\x04\xd2D\xe8\xaf\xb1k@'
p2248
tp2249
Rp2250
sg26
I-1
sg27
I7607466
sbsS'CSC'
p2251
(i__main__
Scrip
p2252
(dp2253
g4
S'Computer Sciences'
p2254
sg6
g2251
sg7
g8
(g12
S'\xc1G\xcfV\xde\xe5F\xc0'
p2255
tp2256
Rp2257
sg18
g8
(g12
S'\xaf;\xb0e\xe4\xc4=\xc0'
p2258
tp2259
Rp2260
sg22
g8
(g12
S'\xb4Z\xf0|\xf1?F\xc0'
p2261
tp2262
Rp2263
sg26
I-1
sg27
I30208938
sbsS'CSX'
p2264
(i__main__
Scrip
p2265
(dp2266
g4
S'CSX Corp'
p2267
sg6
g2264
sg7
g8
(g12
S'\xa1\x03\x14\x87\xa9\xe7B\xc0'
p2268
tp2269
Rp2270
sg18
g8
(g12
S'\x0b\xfe\xa4\xdc\x99\x03;\xc0'
p2271
tp2272
Rp2273
sg22
g8
(g12
S'\xa9\x9f0\xfc\x86\x08G\xc0'
p2274
tp2275
Rp2276
sg26
I-1
sg27
I6552997
sbsS'EW'
p2277
(i__main__
Scrip
p2278
(dp2279
g4
S'Edwards Lifesciences'
p2280
sg6
g2277
sg7
g8
(g12
S'\xa6a\x10q \xd7A\xc0'
p2281
tp2282
Rp2283
sg18
g8
(g12
S'w\xeb\x1eBV@c@'
p2284
tp2285
Rp2286
sg22
g8
(g12
S'\xe2\x1aY]\x86\xbd"\xc0'
p2287
tp2288
Rp2289
sg26
I-1
sg27
I2052165
sbsS'BTU'
p2290
(i__main__
Scrip
p2291
(dp2292
g4
S'Peabody Energy'
p2293
sg6
g2290
sg7
g8
(g12
S'\x8aJ@D\xb1\xb5N\xc0'
p2294
tp2295
Rp2296
sg18
g8
(g12
S'\xeaT\xf6v\x05\xd3V\xc0'
p2297
tp2298
Rp2299
sg22
g8
(g12
S'\xb3e\xcb\x96-\xbbV\xc0'
p2300
tp2301
Rp2302
sg26
I-1
sg27
I759634
sbsS'LUV'
p2303
(i__main__
Scrip
p2304
(dp2305
g4
S'Southwest Airlines'
p2306
sg6
g2303
sg7
g8
(g12
S'\xfb\xc4\n\x19\xa3\x1b#\xc0'
p2307
tp2308
Rp2309
sg18
g8
(g12
S'1Ss\xb1K\x9cb@'
p2310
tp2311
Rp2312
sg22
g8
(g12
S"l\xe8'\xd0\xda\x03k@"
p2313
tp2314
Rp2315
sg26
I-1
sg27
I7758319
sbsS'MUR'
p2316
(i__main__
Scrip
p2317
(dp2318
g4
S'Murphy Oil'
p2319
sg6
g2316
sg7
g8
(g12
S'\x18\x17\xb5\xd5\x8f\xacN\xc0'
p2320
tp2321
Rp2322
sg18
g8
(g12
S'\xa2\xac\xb9\xf9\r\x1bQ\xc0'
p2323
tp2324
Rp2325
sg22
g8
(g12
S'\x1c\x05,\x9a!6N\xc0'
p2326
tp2327
Rp2328
sg26
I-1
sg27
I5668860
sbsS'ATI'
p2329
(i__main__
Scrip
p2330
(dp2331
g4
S'Allegheny Technologies'
p2332
sg6
g2329
sg7
g8
(g12
S'\xabP\xad=N\xc74\xc0'
p2333
tp2334
Rp2335
sg18
g8
(g12
S'\x10\xf5P\x0f\xf5\x90t@'
p2336
tp2337
Rp2338
sg22
g8
(g12
S'#,\xde-\xe0Z/\xc0'
p2339
tp2340
Rp2341
sg26
I-1
sg27
I17984207
sbsS'WYN'
p2342
(i__main__
Scrip
p2343
(dp2344
g4
S'Wyndham Worldwide'
p2345
sg6
g2342
sg7
g8
(g12
S'\xbb!\xd1Cq\xf14\xc0'
p2346
tp2347
Rp2348
sg22
g8
(g12
S'\xc7\xfa\xd0X\x1f\xdag@'
p2349
tp2350
Rp2351
sg26
I-1
sg27
I1651804
sbsS'SYMC'
p2352
(i__main__
Scrip
p2353
(dp2354
g4
S'Symantec Corp'
p2355
sg6
g2352
sg7
g8
(g12
S'\x18e*\x9ekV5\xc0'
p2356
tp2357
Rp2358
sg18
g8
(g12
S'\xa1\xdf\xffaR\x99I\xc0'
p2359
tp2360
Rp2361
sg22
g8
(g12
S'\x9f9\x9f\x7fD\xb70@'
p2362
tp2363
Rp2364
sg26
I-1
sg27
I23761075
sbsS'ADSK'
p2365
(i__main__
Scrip
p2366
(dp2367
g4
S'Autodesk, Inc'
p2368
sg6
g2365
sg7
g8
(g12
S"\x13\xba\xfb\xa8\x9f'6\xc0"
p2369
tp2370
Rp2371
sg18
g8
(g12
S'\xd6Q\x9f\x82\x08\x9eS@'
p2372
tp2373
Rp2374
sg22
g8
(g12
S'\xc0\xde15\xb0\xf7X@'
p2375
tp2376
Rp2377
sg26
I-1
sg27
I3442966
sbsS'WPX'
p2378
(i__main__
Scrip
p2379
(dp2380
g6
g2378
sg27
I10003206
sg7
g8
(g12
S'\xea:\xd8zs\x18R\xc0'
p2381
tp2382
Rp2383
sg4
S'WPX Energy'
p2384
sg26
I-1
sbsS'ECL'
p2385
(i__main__
Scrip
p2386
(dp2387
g4
S'Ecolab Inc'
p2388
sg6
g2385
sg7
g8
(g12
S'\xdf\xa3\xfeC\xb8\x02\x18\xc0'
p2389
tp2390
Rp2391
sg18
g8
(g12
S'\xc8\x86\xa0\xc3\n\x03r@'
p2392
tp2393
Rp2394
sg22
g8
(g12
S'\x90\x1a\x1e"\x9e\x19b@'
p2395
tp2396
Rp2397
sg26
I-1
sg27
I1347229
sbsS'SNDK'
p2398
(i__main__
Scrip
p2399
(dp2400
g4
S'SanDisk Corp'
p2401
sg6
g2398
sg7
g8
(g12
S'\xae\xd0\x91`g\x03:\xc0'
p2402
tp2403
Rp2404
sg18
g8
(g12
S'\xe1!\x94!z\xbe@@'
p2405
tp2406
Rp2407
sg22
g8
(g12
S'\xc9\xd1L\xb69Xd@'
p2408
tp2409
Rp2410
sg26
I-1
sg27
I2286909
sbsS'SEE'
p2411
(i__main__
Scrip
p2412
(dp2413
g4
S'Sealed Air'
p2414
sg6
g2411
sg7
g8
(g12
S'9V7\xc2\x15\xa7\x1a@'
p2415
tp2416
Rp2417
sg18
g8
(g12
S'{\x82\x01\xb3V\xba,\xc0'
p2418
tp2419
Rp2420
sg22
g8
(g12
S'E:l\xa4\xc3\xa6Z@'
p2421
tp2422
Rp2423
sg26
I-1
sg27
I1370562
sbsS'WPO'
p2424
(i__main__
Scrip
p2425
(dp2426
g4
S'Washington PostB'
p2427
sg6
g2424
sg7
g8
(g12
S'9V7\xc2\x15\xa7\x1a@'
p2428
tp2429
Rp2430
sg18
g8
(g12
S'{\x82\x01\xb3V\xba,\xc0'
p2431
tp2432
Rp2433
sg22
g8
(g12
S'E:l\xa4\xc3\xa6Z@'
p2434
tp2435
Rp2436
sg26
I-1
sg27
I1370562
sbsS'DGX'
p2437
(i__main__
Scrip
p2438
(dp2439
g4
S'Quest Diagnostics'
p2440
sg6
g2437
sg7
g8
(g12
S'm\xe7}\xbb\xe2^\xf5\xbf'
p2441
tp2442
Rp2443
sg18
g8
(g12
S'\xa4\xe2M&\x84\xa16\xc0'
p2444
tp2445
Rp2446
sg22
g8
(g12
S"\x8ek\xc1\xbc\xcf\xe2'@"
p2447
tp2448
Rp2449
sg26
I-1
sg27
I1331640
sbsS'NUE'
p2450
(i__main__
Scrip
p2451
(dp2452
g4
S'Nucor Corp'
p2453
sg6
g2450
sg7
g8
(g12
S',AzYK\x90:\xc0'
p2454
tp2455
Rp2456
sg18
g8
(g12
S'\xf1\x98\x96\xf9t\x84C\xc0'
p2457
tp2458
Rp2459
sg22
g8
(g12
S'R>\xa7q\xfe\x88\x07\xc0'
p2460
tp2461
Rp2462
sg26
I-1
sg27
I2775298
sbsS'PCP'
p2463
(i__main__
Scrip
p2464
(dp2465
g4
S'Precision Castparts'
p2466
sg6
g2463
sg7
g8
(g12
S'\xeb\x8eq\x81\x11\xc2\x12@'
p2467
tp2468
Rp2469
sg18
g8
(g12
S'\xfa{~\xe6\xb3\xb7w@'
p2470
tp2471
Rp2472
sg22
g8
(g12
S'\xa2T\xc9W\xbf\xcc]@'
p2473
tp2474
Rp2475
sg26
I-1
sg27
I1632949
sbsS'LNC'
p2476
(i__main__
Scrip
p2477
(dp2478
g4
S'Lincoln Natl Corp'
p2479
sg6
g2476
sg7
g8
(g12
S'DL\x11=\xd6\x1aB\xc0'
p2480
tp2481
Rp2482
sg18
g8
(g12
S'M\xe2\xdc\x89TB8\xc0'
p2483
tp2484
Rp2485
sg22
g8
(g12
S'Ai,\nX\\B@'
p2486
tp2487
Rp2488
sg26
I-1
sg27
I3621276
sbsS'EXPD'
p2489
(i__main__
Scrip
p2490
(dp2491
g4
S'Expeditors Intl,Wash'
p2492
sg6
g2489
sg7
g8
(g12
S'\xdc\xeb\xb8@\xb0\xfd\x0b@'
p2493
tp2494
Rp2495
sg18
g8
(g12
S'\xe7d\xf5\xef\x8a\xb82@'
p2496
tp2497
Rp2498
sg22
g8
(g12
S'\xca\x0bdR\xbc\xc0?@'
p2499
tp2500
Rp2501
sg26
I-1
sg27
I1735079
sbsS'UNP'
p2502
(i__main__
Scrip
p2503
(dp2504
g4
S'Union Pacific'
p2505
sg6
g2502
sg7
g8
(g12
S'\xa8\xd3\x07\x15\xa1\x93C\xc0'
p2506
tp2507
Rp2508
sg18
g8
(g12
S'h$,\x86\\\xd25@'
p2509
tp2510
Rp2511
sg22
g8
(g12
S'P\xb6\xf8\x12,\x07*@'
p2512
tp2513
Rp2514
sg26
I-1
sg27
I5749190
sbsS'CFN'
p2515
(i__main__
Scrip
p2516
(dp2517
g6
g2515
sg27
I18502036
sg7
g8
(g12
S'\xa5\x12\xf0\xd2;\xc2I@'
p2518
tp2519
Rp2520
sg4
S'CareFusion Corp'
p2521
sg26
I-1
sbsS'ETFC'
p2522
(i__main__
Scrip
p2523
(dp2524
g4
S'E Trade Financial'
p2525
sg6
g2522
sg7
g8
(g12
S'&\x0c\xed\xba7m\xe6\xbf'
p2526
tp2527
Rp2528
sg18
g8
(g12
S' \xcc-\x00\xd95M@'
p2529
tp2530
Rp2531
sg22
g8
(g12
S'\xb2\xdc\xd3\x08\xcb\xdd\x96@'
p2532
tp2533
Rp2534
sg26
I-1
sg27
I4733656
sbsS'DUK'
p2535
(i__main__
Scrip
p2536
(dp2537
g4
S'Duke Energy'
p2538
sg6
g2535
sg7
g8
(g12
S'B\xe93q\xfc\xc9\xc1\xbf'
p2539
tp2540
Rp2541
sg18
g8
(g12
S'8\xce\x8b~\xc01p@'
p2542
tp2543
Rp2544
sg22
g8
(g12
S'\xd3\xaeZ\xae#\xd1w@'
p2545
tp2546
Rp2547
sg26
I-1
sg27
I3506430
sbsS'XL'
p2548
(i__main__
Scrip
p2549
(dp2550
g4
S'XL Group PlcA'
p2551
sg6
g2548
sg7
g8
(g12
S'\x82\x155D\x88\xba\xec?'
p2552
tp2553
Rp2554
sg18
g8
(g12
S'4\xa2\xad3mfK\xc0'
p2555
tp2556
Rp2557
sg22
g8
(g12
S'Ye*myBY@'
p2558
tp2559
Rp2560
sg26
I-1
sg27
I2122922
sbsS'CLF'
p2561
(i__main__
Scrip
p2562
(dp2563
g4
S'Cliffs Natural Resources'
p2564
sg6
g2561
sg7
g8
(g12
S"'N\xa7^\xbf\xe1T\xc0"
p2565
tp2566
Rp2567
sg18
g8
(g12
S'\xd2\r\xdc\xc3\x02,X\xc0'
p2568
tp2569
Rp2570
sg22
g8
(g12
S'3LJ\xaa\x95\xeeW\xc0'
p2571
tp2572
Rp2573
sg26
I-1
sg27
I2875166
sbsS'R'
p2574
(i__main__
Scrip
p2575
(dp2576
g4
S'Ryder System'
p2577
sg6
g2574
sg7
g8
(g12
S'`gW{j\x10C\xc0'
p2578
tp2579
Rp2580
sg18
g8
(g12
S'\xd88}\x1d=wM@'
p2581
tp2582
Rp2583
sg22
g8
(g12
S'\x11\x7f\xca\x8f\x8dsP@'
p2584
tp2585
Rp2586
sg26
I-1
sg27
I1241283
sbsS'CLX'
p2587
(i__main__
Scrip
p2588
(dp2589
g4
S'Clorox Co'
p2590
sg6
g2587
sg7
g8
(g12
S'\x90\xe8J\x86\x82\x0c6@'
p2591
tp2592
Rp2593
sg18
g8
(g12
S'^Cy\r\xe5vc@'
p2594
tp2595
Rp2596
sg22
g8
(g12
S'\xfc\xa6\xa9\x02YVZ@'
p2597
tp2598
Rp2599
sg26
I-1
sg27
I1730240
sbsS'CMA'
p2600
(i__main__
Scrip
p2601
(dp2602
g4
S'Comerica Inc'
p2603
sg6
g2600
sg7
g8
(g12
S'E($b\n\xd3<\xc0'
p2604
tp2605
Rp2606
sg18
g8
(g12
S'2~\xbb\xd4\x93\x91C\xc0'
p2607
tp2608
Rp2609
sg22
g8
(g12
S'<L\xde?\xadc\xf9?'
p2610
tp2611
Rp2612
sg26
I-1
sg27
I4362866
sbsS'BBY'
p2613
(i__main__
Scrip
p2614
(dp2615
g4
S'Best Buy'
p2616
sg6
g2613
sg7
g8
(g12
S' kO\xcf~\x8a4\xc0'
p2617
tp2618
Rp2619
sg18
g8
(g12
S'o\xbc\xf1\xc6\x1boF\xc0'
p2620
tp2621
Rp2622
sg22
g8
(g12
S':\x8f\xeai\xe5E5\xc0'
p2623
tp2624
Rp2625
sg26
I-1
sg27
I4402364
sbsS'UNH'
p2626
(i__main__
Scrip
p2627
(dp2628
g4
S'UnitedHealth Group'
p2629
sg6
g2626
sg7
g8
(g12
S'Y?"\x88\xa3\xc30@'
p2630
tp2631
Rp2632
sg18
g8
(g12
S'\x1cD\x8f\xef\xc2\xc1T@'
p2633
tp2634
Rp2635
sg22
g8
(g12
S'\xd8\xc4\xe0\xa9\xad\x85n@'
p2636
tp2637
Rp2638
sg26
I-1
sg27
I3309283
sbsS'FRX'
p2639
(i__main__
Scrip
p2640
(dp2641
g4
S'Forest Labs'
p2642
sg6
g2639
sg7
g8
(g12
S'~5&\xd2\x03\x15e@'
p2643
tp2644
Rp2645
sg18
g8
(g12
S'2\xa1&e\x99\xca;@'
p2646
tp2647
Rp2648
sg22
g8
(g12
S"\xb0N'\x9co,f@"
p2649
tp2650
Rp2651
sg26
I-1
sg27
I11460490
sbsS'UNM'
p2652
(i__main__
Scrip
p2653
(dp2654
g4
S'Unum Group'
p2655
sg6
g2652
sg7
g8
(g12
S'\xaf\xd8\xd3sj@2\xc0'
p2656
tp2657
Rp2658
sg18
g8
(g12
S'Z\x82\x96\xa0%hT@'
p2659
tp2660
Rp2661
sg22
g8
(g12
S'\x15\xc7\xe6r-\xbf?@'
p2662
tp2663
Rp2664
sg26
I-1
sg27
I2423863
sbsS'OMC'
p2665
(i__main__
Scrip
p2666
(dp2667
g4
S'Omnicom Group'
p2668
sg6
g2665
sg7
g8
(g12
S'\x19\xa8T\x8b\xce\x93\x04\xc0'
p2669
tp2670
Rp2671
sg18
g8
(g12
S'\xfa\xcf%\x1e\x91T&\xc0'
p2672
tp2673
Rp2674
sg22
g8
(g12
S'r\xff\x1bzi1W@'
p2675
tp2676
Rp2677
sg26
I-1
sg27
I2643712
sbsS'HP'
p2678
(i__main__
Scrip
p2679
(dp2680
g4
S'Helmerich & Payne'
p2681
sg6
g2678
sg7
g8
(g12
S'(\xb4\xb3\xdd\x06~B\xc0'
p2682
tp2683
Rp2684
sg18
g8
(g12
S'\xa9\x8c\xca\xa8\x8c*R@'
p2685
tp2686
Rp2687
sg22
g8
(g12
S'"dKn\xfb\xa38@'
p2688
tp2689
Rp2690
sg26
I-1
sg27
I3227570
sbsS'KO'
p2691
(i__main__
Scrip
p2692
(dp2693
g4
S'Coca-Cola Co'
p2694
sg6
g2691
sg7
g8
(g12
S'h6\x1ftC\xb5\x10\xc0'
p2695
tp2696
Rp2697
sg18
g8
(g12
S'\x12\x12\x8baT\xd9.\xc0'
p2698
tp2699
Rp2700
sg22
g8
(g12
S'\x983\xcd\xbf\xdc\x986\xc0'
p2701
tp2702
Rp2703
sg26
I-1
sg27
I17211032
sbsS'VMC'
p2704
(i__main__
Scrip
p2705
(dp2706
g4
S'Vulcan Materials'
p2707
sg6
g2704
sg7
g8
(g12
S'\xcf\x0f\x86\xdeK\x86E@'
p2708
tp2709
Rp2710
sg18
g8
(g12
S'9\x00\xaa\xac\xa4\xbcY@'
p2711
tp2712
Rp2713
sg22
g8
(g12
S'\xa74/\xfeD\xe2Z@'
p2714
tp2715
Rp2716
sg26
I-1
sg27
I1660124
sbsS'KR'
p2717
(i__main__
Scrip
p2718
(dp2719
g4
S'Kroger Co'
p2720
sg6
g2717
sg7
g8
(g12
S'\x9f\xe4\xfbX\xcd\x8eB\xc0'
p2721
tp2722
Rp2723
sg18
g8
(g12
S'\xf3F\x08\x92\xd9P]@'
p2724
tp2725
Rp2726
sg22
g8
(g12
S'\xe6s\xe5.\xeb\xf9Q@'
p2727
tp2728
Rp2729
sg26
I-1
sg27
I9723460
sbsS'XLNX'
p2730
(i__main__
Scrip
p2731
(dp2732
g4
S'Xilinx Inc'
p2733
sg6
g2730
sg7
g8
(g12
S'G^%\x97\xb3z$@'
p2734
tp2735
Rp2736
sg18
g8
(g12
S'\xbe\x17\x8c\xd0\xea\xf1-@'
p2737
tp2738
Rp2739
sg22
g8
(g12
S'\xd6\x19\xa9\x98[\x1dY@'
p2740
tp2741
Rp2742
sg26
I-1
sg27
I3483590
sbsS'EXPE'
p2743
(i__main__
Scrip
p2744
(dp2745
g4
S'Expedia Inc'
p2746
sg6
g2743
sg7
g8
(g12
S'I\xa7\x85\x80<\x04"@'
p2747
tp2748
Rp2749
sg22
g8
(g12
S'\xe1\x92BCf\xdfs@'
p2750
tp2751
Rp2752
sg26
I-1
sg27
I5785638
sbsS'KEY'
p2753
(i__main__
Scrip
p2754
(dp2755
g4
S'KeyCorp'
p2756
sg6
g2753
sg7
g8
(g12
S'\xb4\x05b\xbd\xdd\xb33\xc0'
p2757
tp2758
Rp2759
sg18
g8
(g12
S'\xe0\xef\xf7\xfb\xfd~P\xc0'
p2760
tp2761
Rp2762
sg22
g8
(g12
S'\xda\xcd\xb6T\xdc_L@'
p2763
tp2764
Rp2765
sg26
I-1
sg27
I17330079
sbsS'ITW'
p2766
(i__main__
Scrip
p2767
(dp2768
g4
S'Illinois Tool Works'
p2769
sg6
g2766
sg7
g8
(g12
S'\xdd_\xdb\xb4#)\x12\xc0'
p2770
tp2771
Rp2772
sg18
g8
(g12
S'-\xc1\xbb\x8a\xd1N*@'
p2773
tp2774
Rp2775
sg22
g8
(g12
S'\x1f\xd4(F\x07\xcbZ@'
p2776
tp2777
Rp2778
sg26
I-1
sg27
I1859097
sbsS'KLAC'
p2779
(i__main__
Scrip
p2780
(dp2781
g4
S'KLA-Tencor Corp'
p2782
sg6
g2779
sg7
g8
(g12
S';\xa5nB\xcf\xd51\xc0'
p2783
tp2784
Rp2785
sg18
g8
(g12
S'\xf8<\xcf\xf3<\xdb5@'
p2786
tp2787
Rp2788
sg22
g8
(g12
S'\xe9m\xd4\x95\xd5\xe2_@'
p2789
tp2790
Rp2791
sg26
I-1
sg27
I1591363
sbsS'MOLX'
p2792
(i__main__
Scrip
p2793
(dp2794
g4
S'Molex Inc'
p2795
sg6
g2792
sg7
g8
(g12
S';\xa5nB\xcf\xd51\xc0'
p2796
tp2797
Rp2798
sg18
g8
(g12
S'\xf8<\xcf\xf3<\xdb5@'
p2799
tp2800
Rp2801
sg22
g8
(g12
S'\xe9m\xd4\x95\xd5\xe2_@'
p2802
tp2803
Rp2804
sg26
I-1
sg27
I1591363
sbsS'DO'
p2805
(i__main__
Scrip
p2806
(dp2807
g4
S'Diamond Offshore Drilling'
p2808
sg6
g2805
sg7
g8
(g12
S'"mdk\xffHG\xc0'
p2809
tp2810
Rp2811
sg18
g8
(g12
S'\xa6\xf8\t\x97\xd7\xb66\xc0'
p2812
tp2813
Rp2814
sg22
g8
(g12
S'\xf7\xc06B8\xacS\xc0'
p2815
tp2816
Rp2817
sg26
I-1
sg27
I3598974
sbsS'SWK'
p2818
(i__main__
Scrip
p2819
(dp2820
g4
S'Stanley Black & Decker'
p2821
sg6
g2818
sg7
g8
(g12
S'\x18\xdb\xf3\xef3)\xf4\xbf'
p2822
tp2823
Rp2824
sg18
g8
(g12
S'\xc3\x9f\xa3i\xcf\xd8a@'
p2825
tp2826
Rp2827
sg22
g8
(g12
S'\x04\xafG\x02\x91\x86P@'
p2828
tp2829
Rp2830
sg26
I-1
sg27
I1940333
sbsS'PNR'
p2831
(i__main__
Scrip
p2832
(dp2833
g4
S'Pentair Ltd'
p2834
sg6
g2831
sg7
g8
(g12
S'C\x1c\x1c3t\r@\xc0'
p2835
tp2836
Rp2837
sg18
g8
(g12
S'\x9e\xe9p\x14\xfd$(\xc0'
p2838
tp2839
Rp2840
sg22
g8
(g12
S'\xc8\x9e\xe2-v\x8cH@'
p2841
tp2842
Rp2843
sg26
I-1
sg27
I1920189
sbsS'WYNN'
p2844
(i__main__
Scrip
p2845
(dp2846
g4
S'Wynn Resorts'
p2847
sg6
g2844
sg7
g8
(g12
S'\xb4!ba\xa5LP\xc0'
p2848
tp2849
Rp2850
sg18
g8
(g12
S'\xbf\xe5\xb6hG\xa9Q@'
p2851
tp2852
Rp2853
sg22
g8
(g12
S"\x86x\xe2a\x87'\x16\xc0"
p2854
tp2855
Rp2856
sg26
I-1
sg27
I2438337
sbsS'SWN'
p2857
(i__main__
Scrip
p2858
(dp2859
g4
S'Southwestern Energy'
p2860
sg6
g2857
sg7
g8
(g12
S'\xc8^f\xa0\xd46R\xc0'
p2861
tp2862
Rp2863
sg18
g8
(g12
S'\xf8\xc6\x0b\x91\x8ebK\xc0'
p2864
tp2865
Rp2866
sg22
g8
(g12
S'\n\x13\x11D\x16\xbdS\xc0'
p2867
tp2868
Rp2869
sg26
I-1
sg27
I21816048
sbsS'DG'
p2870
(i__main__
Scrip
p2871
(dp2872
g4
S'Dollar General'
p2873
sg6
g2870
sg7
g8
(g12
S'\xc0\x9d\xf0.\x01\xd5$@'
p2874
tp2875
Rp2876
sg22
g8
(g12
S'\x14oVy\x81\xc2l@'
p2877
tp2878
Rp2879
sg26
I-1
sg27
I2766112
sbsS'DD'
p2880
(i__main__
Scrip
p2881
(dp2882
g4
S'duPont(E.I.)deNemours'
p2883
sg6
g2880
sg7
g8
(g12
S'\xe8\xa8\x9f0\xfc\x860\xc0'
p2884
tp2885
Rp2886
sg18
g8
(g12
S'\xfbV\xcd\xdc\xe1W=@'
p2887
tp2888
Rp2889
sg22
g8
(g12
S'\x92\x1dV\x9bN\xfbS@'
p2890
tp2891
Rp2892
sg26
I-1
sg27
I5294595
sbsS'DE'
p2893
(i__main__
Scrip
p2894
(dp2895
g4
S'Deere & Co'
p2896
sg6
g2893
sg7
g8
(g12
S' \xe22!\xb4R$\xc0'
p2897
tp2898
Rp2899
sg18
g8
(g12
S'\xf5\xdc)\x9c\xd0\x124@'
p2900
tp2901
Rp2902
sg22
g8
(g12
S'O)\x19\x8a\xf1\xd3G@'
p2903
tp2904
Rp2905
sg26
I-1
sg27
I4147226
sbsS'SWY'
p2906
(i__main__
Scrip
p2907
(dp2908
g4
S'Safeway Inc'
p2909
sg6
g2906
sg7
g8
(g12
S'\x1cd\\\x90qA\x16@'
p2910
tp2911
Rp2912
sg18
g8
(g12
S'\x92a\x917\xbaKS@'
p2913
tp2914
Rp2915
sg22
g8
(g12
S'\xdcC.+\x06JQ@'
p2916
tp2917
Rp2918
sg26
I-1
sg27
I52531100
sbsS'TGT'
p2919
(i__main__
Scrip
p2920
(dp2921
g4
S'Target Corp'
p2922
sg6
g2919
sg7
g8
(g12
S'\xac\n\xaa\xa0\n\xaa\x18@'
p2923
tp2924
Rp2925
sg18
g8
(g12
S'\xd5(\x0f\x8e\xfd\x85P@'
p2926
tp2927
Rp2928
sg22
g8
(g12
S'3\x17\xcd\x17q\x13B@'
p2929
tp2930
Rp2931
sg26
I-1
sg27
I3748914
sbsS'HBAN'
p2932
(i__main__
Scrip
p2933
(dp2934
g4
S'Huntington Bancshares'
p2935
sg6
g2932
sg7
g8
(g12
S'92\xfc\xc9\xcd\x03.\xc0'
p2936
tp2937
Rp2938
sg18
g8
(g12
S'\xee\xe2\x1101DO\xc0'
p2939
tp2940
Rp2941
sg22
g8
(g12
S'\xf8\xc0\xed\x0e\x0bTU@'
p2942
tp2943
Rp2944
sg26
I-1
sg27
I15460134
sbsS'BIIB'
p2945
(i__main__
Scrip
p2946
(dp2947
g4
S'Biogen Idec'
p2948
sg6
g2945
sg7
g8
(g12
S'\x1549\xa1\xb2\xb52\xc0'
p2949
tp2950
Rp2951
sg18
g8
(g12
S'Noz\xd3\x1b\xc2u@'
p2952
tp2953
Rp2954
sg22
g8
(g12
S'D)\x94B)\xf4w@'
p2955
tp2956
Rp2957
sg26
I-1
sg27
I2811552
sbsS'PCG'
p2958
(i__main__
Scrip
p2959
(dp2960
g4
S'PG&E Corp'
p2961
sg6
g2958
sg7
g8
(g12
S'\x99\x88\xc3H\x9e2(@'
p2962
tp2963
Rp2964
sg18
g8
(g12
S'\xdc>\xf3=\x1c\tY@'
p2965
tp2966
Rp2967
sg22
g8
(g12
S'\x7fpZ\xee\x0fNA@'
p2968
tp2969
Rp2970
sg26
I-1
sg27
I3674611
sbsS'POM'
p2971
(i__main__
Scrip
p2972
(dp2973
g4
S'Pepco Holdings'
p2974
sg6
g2971
sg7
g8
(g12
S'\xbe\x9a\x95\x12h\xe0\x0b\xc0'
p2975
tp2976
Rp2977
sg18
g8
(g12
S'\xeb.\x9fL1c7@'
p2978
tp2979
Rp2980
sg22
g8
(g12
S'J\xd0|s\xf7\xb8N@'
p2981
tp2982
Rp2983
sg26
I-1
sg27
I2520455
sbsS'AKAM'
p2984
(i__main__
Scrip
p2985
(dp2986
g4
S'Akamai Technologies'
p2987
sg6
g2984
sg7
g8
(g12
S'a\xc2\xba\xfe5\x89<\xc0'
p2988
tp2989
Rp2990
sg18
g8
(g12
S'\xe3\xc4\xf3\x171Ug@'
p2991
tp2992
Rp2993
sg22
g8
(g12
S'\x15\xfa\xdcJ\x1aVQ@'
p2994
tp2995
Rp2996
sg26
I-1
sg27
I2598693
sbsS'DHI'
p2997
(i__main__
Scrip
p2998
(dp2999
g4
S'D.R.Horton'
p3000
sg6
g2997
sg7
g8
(g12
S'\n\xec\x9a3\x9c\xa7\xfc?'
p3001
tp3002
Rp3003
sg18
g8
(g12
S'\xd9\x87@\xb8J\xf02\xc0'
p3004
tp3005
Rp3006
sg22
g8
(g12
S'\x17\xfdv\n\xba@U@'
p3007
tp3008
Rp3009
sg26
I-1
sg27
I9298456
sbsS'M'
p3010
(i__main__
Scrip
p3011
(dp3012
g4
S'Macys Inc'
p3013
sg6
g3010
sg7
g8
(g12
S']g\xf2\xa25NA\xc0'
p3014
tp3015
Rp3016
sg18
g8
(g12
S'\xa0\x9d\xac7+\n4\xc0'
p3017
tp3018
Rp3019
sg22
g8
(g12
S'\xbbZ\t\x9a\n&b@'
p3020
tp3021
Rp3022
sg26
I-1
sg27
I5453415
sbsS'INTU'
p3023
(i__main__
Scrip
p3024
(dp3025
g4
S'Intuit Inc'
p3026
sg6
g3023
sg7
g8
(g12
S'\x88Nv`\xba\x0c\xf3?'
p3027
tp3028
Rp3029
sg18
g8
(g12
S'1\xc2W\x04i\x8eY@'
p3030
tp3031
Rp3032
sg22
g8
(g12
S'\x0b+F\t\x8d\xb6j@'
p3033
tp3034
Rp3035
sg26
I-1
sg27
I2860271
sbsS'BEAM'
p3036
(i__main__
Scrip
p3037
(dp3038
g4
S'Beam Inc'
p3039
sg6
g3036
sg7
g8
(g12
S'pS\xe9\xef>\xf3A@'
p3040
tp3041
Rp3042
sg18
g8
(g12
S'Z\xd9A\xac\x8e\xcaK@'
p3043
tp3044
Rp3045
sg22
g8
(g12
S'\xf3\x9e\xf25\x1eD1@'
p3046
tp3047
Rp3048
sg26
I-1
sg27
I12208937
sbsS'ALXN'
p3049
(i__main__
Scrip
p3050
(dp3051
g4
S'Alexion Pharmaceuticals'
p3052
sg6
g3049
sg7
g8
(g12
S'\xe9\xa6\x0e\xd4$\x81:\xc0'
p3053
tp3054
Rp3055
sg18
g8
(g12
S'\xab\x15\xd4\x10\xe6\xe4\x80@'
p3056
tp3057
Rp3058
sg22
g8
(g12
S'^\x97\x13\xcf\xb4\x84i@'
p3059
tp3060
Rp3061
sg26
I-1
sg27
I2071627
sbsS'DHR'
p3062
(i__main__
Scrip
p3063
(dp3064
g4
S'Danaher Corp'
p3065
sg6
g3062
sg7
g8
(g12
S'\xab\xd9\xd3V\xaa\xda\xff?'
p3066
tp3067
Rp3068
sg18
g8
(g12
S'\xa7\x90\xac6\xc0\x9f\x15\xc0'
p3069
tp3070
Rp3071
sg22
g8
(g12
S'\xb2=\xf9w.\x87(@'
p3072
tp3073
Rp3074
sg26
I-1
sg27
I3010624
sbsS'SLB'
p3075
(i__main__
Scrip
p3076
(dp3077
g4
S'Schlumberger Ltd'
p3078
sg6
g3075
sg7
g8
(g12
S'L(QD-\xfe=\xc0'
p3079
tp3080
Rp3081
sg18
g8
(g12
S'L\xe4\xd0\xcc\xb6\x97\x1d@'
p3082
tp3083
Rp3084
sg22
g8
(g12
S'l\xf5\x84\xb5\x92\xd1\x18@'
p3085
tp3086
Rp3087
sg26
I-1
sg27
I16441103
sbsS'MCO'
p3088
(i__main__
Scrip
p3089
(dp3090
g4
S'Moodys Corp'
p3091
sg6
g3088
sg7
g8
(g12
S"'\xd7\xb0\xb7\xec\x0b1\xc0"
p3092
tp3093
Rp3094
sg18
g8
(g12
S'\xde\xdc8\xb4V\n<@'
p3095
tp3096
Rp3097
sg22
g8
(g12
S'\xca\xdf3\x8d\xa2\xc4i@'
p3098
tp3099
Rp3100
sg26
I-1
sg27
I2484899
sbsS'MCK'
p3101
(i__main__
Scrip
p3102
(dp3103
g4
S'McKesson Corp'
p3104
sg6
g3101
sg7
g8
(g12
S'\xf7\x19\xf1S\xe2\xa28\xc0'
p3105
tp3106
Rp3107
sg18
g8
(g12
S'\xbc\xde\x93\xe0\x19\x94|@'
p3108
tp3109
Rp3110
sg22
g8
(g12
S'|\xd5\x91b\x7f\x9bd@'
p3111
tp3112
Rp3113
sg26
I-1
sg27
I2666703
sbsS'MCD'
p3114
(i__main__
Scrip
p3115
(dp3116
g4
S'McDonalds Corp'
p3117
sg6
g3114
sg7
g8
(g12
S'\xec1B\xec\xf8\xee3@'
p3118
tp3119
Rp3120
sg18
g8
(g12
S'l\xa3+aJ\xa3r@'
p3121
tp3122
Rp3123
sg22
g8
(g12
S'\x16~\x83d;yS@'
p3124
tp3125
Rp3126
sg26
I-1
sg27
I13170208
sbsS'NRG'
p3127
(i__main__
Scrip
p3128
(dp3129
g4
S'NRG Energy'
p3130
sg6
g3127
sg7
g8
(g12
S'\xf6u\xaa\xb8\xf2FP\xc0'
p3131
tp3132
Rp3133
sg18
g8
(g12
S'\xdc)\x9f\xdd9YD\xc0'
p3134
tp3135
Rp3136
sg22
g8
(g12
S'\xd6\xd5dx\x17rI\xc0'
p3137
tp3138
Rp3139
sg26
I-1
sg27
I11185158
sbsS'PBCT'
p3140
(i__main__
Scrip
p3141
(dp3142
g4
S'Peoples United Financial'
p3143
sg6
g3140
sg7
g8
(g12
S']\x84\x9a\x9a+x\r\xc0'
p3144
tp3145
Rp3146
sg18
g8
(g12
S'tBW+O\xf5P\xc0'
p3147
tp3148
Rp3149
sg22
g8
(g12
S'\x0b\xbaP\xef\xcc\xc0\x18\xc0'
p3150
tp3151
Rp3152
sg26
I-1
sg27
I5842689
sbsS'VTR'
p3153
(i__main__
Scrip
p3154
(dp3155
g4
S'Ventas Inc'
p3156
sg6
g3153
sg7
g8
(g12
S'\xfc\x02\xac\xd1\x15\xce1\xc0'
p3157
tp3158
Rp3159
sg18
g8
(g12
S'\xdak\xa5\x83\x0b\xc6[@'
p3160
tp3161
Rp3162
sg22
g8
(g12
S'?@W\x0f\xd0\xd5?@'
p3163
tp3164
Rp3165
sg26
I-1
sg27
I2702279
sbsS'AXP'
p3166
(i__main__
Scrip
p3167
(dp3168
g4
S'Amer Express'
p3169
sg6
g3166
sg7
g8
(g12
S'\x1fz\xf6\x08pxD\xc0'
p3170
tp3171
Rp3172
sg18
g8
(g12
S'T\xaf\xc3\xb1\xabJ\xf9?'
p3173
tp3174
Rp3175
sg22
g8
(g12
S'\xf9\xa5\x14n^TC@'
p3176
tp3177
Rp3178
sg26
I-1
sg27
I9091018
sbsS'NFLX'
p3179
(i__main__
Scrip
p3180
(dp3181
g4
S'NetFlix Inc'
p3182
sg6
g3179
sg7
g8
(g12
S'\x00_\xd6+;\x07S\xc0'
p3183
tp3184
Rp3185
sg18
g8
(g12
S'dTs\t\xf3Ne@'
p3186
tp3187
Rp3188
sg22
g8
(g12
S'\x1b\xcf\xc3\xbc\xc6\xfa;@'
p3189
tp3190
Rp3191
sg26
I-1
sg27
I25791303
sbsS'EXC'
p3192
(i__main__
Scrip
p3193
(dp3194
g4
S'Exelon Corp'
p3195
sg6
g3192
sg7
g8
(g12
S'\xaa\xa5S\x9a\xba\xdd \xc0'
p3196
tp3197
Rp3198
sg18
g8
(g12
S'J\xa6dJ\xa6\xe4H\xc0'
p3199
tp3200
Rp3201
sg22
g8
(g12
S'M\x89\xe0\x91\xfez:\xc0'
p3202
tp3203
Rp3204
sg26
I-1
sg27
I10924521
sbsS'WM'
p3205
(i__main__
Scrip
p3206
(dp3207
g4
S'Waste Management'
p3208
sg6
g3205
sg7
g8
(g12
S'\x98[\xc1\xce\xd7\xe4\x18@'
p3209
tp3210
Rp3211
sg18
g8
(g12
S"'>\xb5[a\xa0S@"
p3212
tp3213
Rp3214
sg22
g8
(g12
S'[\x96\xd7\ra\xaeO@'
p3215
tp3216
Rp3217
sg26
I-1
sg27
I2141372
sbsS'DNR'
p3218
(i__main__
Scrip
p3219
(dp3220
g4
S'Denbury Resources'
p3221
sg6
g3218
sg7
g8
(g12
S'L\x8b\xbe\xaa\x89sU\xc0'
p3222
tp3223
Rp3224
sg18
g8
(g12
S'\xd3\xd8\xe2\x1fe9V\xc0'
p3225
tp3226
Rp3227
sg22
g8
(g12
S'm\xd4w6\xea;V\xc0'
p3228
tp3229
Rp3230
sg26
I-1
sg27
I12251087
sbsS'SRCL'
p3231
(i__main__
Scrip
p3232
(dp3233
g4
S'Stericycle Inc'
p3234
sg6
g3231
sg7
g8
(g12
S'W\r&V\x17\xf4)\xc0'
p3235
tp3236
Rp3237
sg18
g8
(g12
S';o8\x93\xac\x15a@'
p3238
tp3239
Rp3240
sg22
g8
(g12
S'\xc1}W\xdf\xcbl[@'
p3241
tp3242
Rp3243
sg26
I-1
sg27
I2577455
sbsS'WU'
p3244
(i__main__
Scrip
p3245
(dp3246
g4
S'Western Union'
p3247
sg6
g3244
sg7
g8
(g12
S'\x1dC\xe0\xe4mb\x10\xc0'
p3248
tp3249
Rp3250
sg22
g8
(g12
S'NY\x08\xa8\xd5+\x02@'
p3251
tp3252
Rp3253
sg26
I-1
sg27
I6826837
sbsS'WY'
p3254
(i__main__
Scrip
p3255
(dp3256
g4
S'Weyerhaeuser Co'
p3257
sg6
g3254
sg7
g8
(g12
S'm\x8apx\xdd\x80=\xc0'
p3258
tp3259
Rp3260
sg18
g8
(g12
S'\x03U\xcc\xe8\x96\xbaO\xc0'
p3261
tp3262
Rp3263
sg22
g8
(g12
S'\x8f\x16\x95H\xbeFE\xc0'
p3264
tp3265
Rp3266
sg26
I-1
sg27
I8132933
sbsS'BBT'
p3267
(i__main__
Scrip
p3268
(dp3269
g4
S'BB&T Corp'
p3270
sg6
g3267
sg7
g8
(g12
S'\x89\x8ct\x1b\xf4\xc8-\xc0'
p3271
tp3272
Rp3273
sg18
g8
(g12
S'\xc9\x05\x86\xf8\xe5\x9b*\xc0'
p3274
tp3275
Rp3276
sg22
g8
(g12
S'\x96\x17h\xa5\xa4\x0c3@'
p3277
tp3278
Rp3279
sg26
I-1
sg27
I7087082
sbsS'VNO'
p3280
(i__main__
Scrip
p3281
(dp3282
g4
S'Vornado Realty Trust'
p3283
sg6
g3280
sg7
g8
(g12
S's\xa4\xfc\xc8\xf0\xb76\xc0'
p3284
tp3285
Rp3286
sg18
g8
(g12
S'\xc8q\x1c\xc7q$G@'
p3287
tp3288
Rp3289
sg22
g8
(g12
S"`'\\m\xfb\x8c;@"
p3290
tp3291
Rp3292
sg26
I-1
sg27
I1287615
sbsS'TRIP'
p3293
(i__main__
Scrip
p3294
(dp3295
g6
g3293
sg27
I5083914
sg7
g8
(g12
S'(\xff@\t5\x9a0\xc0'
p3296
tp3297
Rp3298
sg4
S'TripAdvisor Inc'
p3299
sg26
I-1
sbsS'SPLS'
p3300
(i__main__
Scrip
p3301
(dp3302
g4
S'Staples Inc'
p3303
sg6
g3300
sg7
g8
(g12
S'q\x11\xa0\x0f\xaaXB\xc0'
p3304
tp3305
Rp3306
sg18
g8
(g12
S'\xc4N\xec\xc4NlP\xc0'
p3307
tp3308
Rp3309
sg22
g8
(g12
S'ncP\xdb\xc2DP\xc0'
p3310
tp3311
Rp3312
sg26
I-1
sg27
I6659054
sbsS'HSY'
p3313
(i__main__
Scrip
p3314
(dp3315
g4
S'Hershey Co'
p3316
sg6
g3313
sg7
g8
(g12
S'=\xe1\xfd+/m"\xc0'
p3317
tp3318
Rp3319
sg18
g8
(g12
S'\x94\x1f\xb6K\t\x04\x13@'
p3320
tp3321
Rp3322
sg22
g8
(g12
S'\xe0\r\xac\x88k5a@'
p3323
tp3324
Rp3325
sg26
I-1
sg27
I1223841
sbsS'DLPH'
p3326
(i__main__
Scrip
p3327
(dp3328
g6
g3326
sg27
I4645168
sg7
g8
(g12
S'z^r\xb7\xab\xe7/\xc0'
p3329
tp3330
Rp3331
sg4
S'Delphi Automotive PLC'
p3332
sg26
I-1
sbsS'WEC'
p3333
(i__main__
Scrip
p3334
(dp3335
g4
S'Wisconsin Energy Corp'
p3336
sg6
g3333
sg7
g8
(g12
S'\x9cU\xe5]`p-@'
p3337
tp3338
Rp3339
sg18
g8
(g12
S'y\x0c\xc9r1.R@'
p3340
tp3341
Rp3342
sg22
g8
(g12
S'\xbc\xc3\x08\x082C0@'
p3343
tp3344
Rp3345
sg26
I-1
sg27
I2650760
sbsS'HAL'
p3346
(i__main__
Scrip
p3347
(dp3348
g4
S'Halliburton Co'
p3349
sg6
g3346
sg7
g8
(g12
S'\xb2\xed\x9f\x07(\xd2D\xc0'
p3350
tp3351
Rp3352
sg18
g8
(g12
S"?'\x1d\xe0\x9a\xc6\xf6?"
p3353
tp3354
Rp3355
sg22
g8
(g12
S'\x1bT\xa2\xafvA!@'
p3356
tp3357
Rp3358
sg26
I-1
sg27
I11378571
sbsS'FITB'
p3359
(i__main__
Scrip
p3360
(dp3361
g4
S'Fifth Third Bancorp'
p3362
sg6
g3359
sg7
g8
(g12
S'\x8b\xc8x\x11\x19/8\xc0'
p3363
tp3364
Rp3365
sg18
g8
(g12
S'&<\x86\xdd\xfa"R\xc0'
p3366
tp3367
Rp3368
sg22
g8
(g12
S'\x1a\x9f\xec\xc8\xc1&6@'
p3369
tp3370
Rp3371
sg26
I-1
sg27
I10384479
sbsS'EQR'
p3372
(i__main__
Scrip
p3373
(dp3374
g4
S'Equity Residential'
p3375
sg6
g3372
sg7
g8
(g12
S'T\x0e!\xd6\x01S\x16@'
p3376
tp3377
Rp3378
sg18
g8
(g12
S'"\x90k"\x90kb@'
p3379
tp3380
Rp3381
sg22
g8
(g12
S'\x8a\x8e\xe8\x88\x8e(_@'
p3382
tp3383
Rp3384
sg26
I-1
sg27
I2209319
sbsS'EQT'
p3385
(i__main__
Scrip
p3386
(dp3387
g4
S'EQT Corp'
p3388
sg6
g3385
sg7
g8
(g12
S'\xee2\x1d=VIB\xc0'
p3389
tp3390
Rp3391
sg18
g8
(g12
S'gc\\_.jC@'
p3392
tp3393
Rp3394
sg22
g8
(g12
S'\x87\xe4\x13\x0c5 C@'
p3395
tp3396
Rp3397
sg26
I-1
sg27
I2414123
sbsS'GPC'
p3398
(i__main__
Scrip
p3399
(dp3400
g4
S'Genuine Parts'
p3401
sg6
g3398
sg7
g8
(g12
S'\xd8r\x1b\xd7\x80J/\xc0'
p3402
tp3403
Rp3404
sg18
g8
(g12
S'\x14\xbf\x87X\x18\rb@'
p3405
tp3406
Rp3407
sg22
g8
(g12
S'\x90\xc3\xe0\x1dt=_@'
p3408
tp3409
Rp3410
sg26
I-1
sg27
I985727
sbsS'PDCO'
p3411
(i__main__
Scrip
p3412
(dp3413
g4
S'Patterson Cos'
p3414
sg6
g3411
sg7
g8
(g12
S'\xde\x96\xd3\xff(\xd1\r\xc0'
p3415
tp3416
Rp3417
sg18
g8
(g12
S'H\x1d\xa3\x1aH$B\xc0'
p3418
tp3419
Rp3420
sg22
g8
(g12
S'\x95\xe7\x8c*\xed\x94F@'
p3421
tp3422
Rp3423
sg26
I-1
sg27
I933631
sbsS'X'
p3424
(i__main__
Scrip
p3425
(dp3426
g4
S'U.S. Steel'
p3427
sg6
g3424
sg7
g8
(g12
S'\x12z?+^\x97S\xc0'
p3428
tp3429
Rp3430
sg18
g8
(g12
S'\x0e\xea\x93\xc4\xb1yS\xc0'
p3431
tp3432
Rp3433
sg22
g8
(g12
S'[\xed\xc5Yo\xdeT\xc0'
p3434
tp3435
Rp3436
sg26
I-1
sg27
I9566143
sbsS'HAR'
p3437
(i__main__
Scrip
p3438
(dp3439
g4
S'Harman Intl'
p3440
sg6
g3437
sg7
g8
(g12
S'\xd0F\xa2&)7A\xc0'
p3441
tp3442
Rp3443
sg18
g8
(g12
S'\x0f\xef\x85\xf7\xc2{\x19\xc0'
p3444
tp3445
Rp3446
sg22
g8
(g12
S'\x06\xe8\x9eZ\x9a\x1aX@'
p3447
tp3448
Rp3449
sg26
I-1
sg27
I902513
sbsS'HAS'
p3450
(i__main__
Scrip
p3451
(dp3452
g4
S'Hasbro Inc'
p3453
sg6
g3450
sg7
g8
(g12
S'\x04c+\x86\xd4\xef<@'
p3454
tp3455
Rp3456
sg18
g8
(g12
S'\xbfj)\xbc\xb5\x8fn@'
p3457
tp3458
Rp3459
sg22
g8
(g12
S'\xce\xcaO\x88\xb3\x92a@'
p3460
tp3461
Rp3462
sg26
I-1
sg27
I2442873
sbsS'THC'
p3463
(i__main__
Scrip
p3464
(dp3465
g4
S'Tenet Healthcare'
p3466
sg6
g3463
sg7
g8
(g12
S'\x0c\xa7\xd5\x9c\xe5\x13G\xc0'
p3467
tp3468
Rp3469
sg18
g8
(g12
S'\xb9]\xd2\xd4P\xc7Z@'
p3470
tp3471
Rp3472
sg22
g8
(g12
S'h\x94\xf8\x19%\x16w@'
p3473
tp3474
Rp3475
sg26
I-1
sg27
I1775076
sbsS'CTXS'
p3476
(i__main__
Scrip
p3477
(dp3478
g4
S'Citrix Systems'
p3479
sg6
g3476
sg7
g8
(g12
S'\x1b\x1b\xf6w1\xa8\x0b\xc0'
p3480
tp3481
Rp3482
sg18
g8
(g12
S'}\xb1\x81&u\xaaj@'
p3483
tp3484
Rp3485
sg22
g8
(g12
S"\n9'w\x89EK@"
p3486
tp3487
Rp3488
sg26
I-1
sg27
I2762332
sbsS'GPS'
p3489
(i__main__
Scrip
p3490
(dp3491
g4
S'Gap Inc'
p3492
sg6
g3489
sg7
g8
(g12
S'S\x1a\x83\x07c\xacC\xc0'
p3493
tp3494
Rp3495
sg18
g8
(g12
S'0+s\x88\x16<0@'
p3496
tp3497
Rp3498
sg22
g8
(g12
S'\x97\xad\x9fjA\x913@'
p3499
tp3500
Rp3501
sg26
I-1
sg27
I6155243
sbsS'PHM'
p3502
(i__main__
Scrip
p3503
(dp3504
g4
S'PulteGroup Inc'
p3505
sg6
g3502
sg7
g8
(g12
S'\xe0\xb5s6\xb0\x164\xc0'
p3506
tp3507
Rp3508
sg18
g8
(g12
S':\x96\xad\x85\xd4mP\xc0'
p3509
tp3510
Rp3511
sg22
g8
(g12
S'\xe8\xa2\x8b.\xba\xd8J@'
p3512
tp3513
Rp3514
sg26
I-1
sg27
I6174244
sbsS'SYK'
p3515
(i__main__
Scrip
p3516
(dp3517
g4
S'Stryker Corp'
p3518
sg6
g3515
sg7
g8
(g12
S'S\xd3F\x94n8 @'
p3519
tp3520
Rp3521
sg18
g8
(g12
S'z\xe1\xb8j\xecS#@'
p3522
tp3523
Rp3524
sg22
g8
(g12
S'\xab\xaa\xaa\xaa\xaa\xe2T@'
p3525
tp3526
Rp3527
sg26
I-1
sg27
I2010651
sbsS'BRCM'
p3528
(i__main__
Scrip
p3529
(dp3530
g4
S'Broadcom CorpA'
p3531
sg6
g3528
sg7
g8
(g12
S'\x02\x88\xc7?Z\x0cA@'
p3532
tp3533
Rp3534
sg18
g8
(g12
S'\xb7\xf8\xdbf\xcd\x1eQ@'
p3535
tp3536
Rp3537
sg22
g8
(g12
S'\xcd\xea\xf6\xb2L\xbcS@'
p3538
tp3539
Rp3540
sg26
I-1
sg27
I7348659
sbsS'KIM'
p3541
(i__main__
Scrip
p3542
(dp3543
g4
S'Kimco Realty'
p3544
sg6
g3541
sg7
g8
(g12
S'\x86\x92\xf4/\xd2\xc4#@'
p3545
tp3546
Rp3547
sg18
g8
(g12
S'~\xb6\xcbQ\x94\x1fF\xc0'
p3548
tp3549
Rp3550
sg22
g8
(g12
S'H \x81\x04\x12\x88Y@'
p3551
tp3552
Rp3553
sg26
I-1
sg27
I3469151
sbsS'SYY'
p3554
(i__main__
Scrip
p3555
(dp3556
g4
S'Sysco Corp'
p3557
sg6
g3554
sg7
g8
(g12
S'\x04x\xb7\xd2\x08L"@'
p3558
tp3559
Rp3560
sg18
g8
(g12
S'\x04x\xb7\xd2\x08L"@'
p3561
tp3562
Rp3563
sg22
g8
(g12
S'O#,\xf74BH@'
p3564
tp3565
Rp3566
sg26
I-1
sg27
I7298692
sbsS'AEP'
p3567
(i__main__
Scrip
p3568
(dp3569
g4
S'Amer Electric Pwr'
p3570
sg6
g3567
sg7
g8
(g12
S"\xba\xdf9\xf9j1'@"
p3571
tp3572
Rp3573
sg18
g8
(g12
S'd\xc2\xd4\xe42\xf7U@'
p3574
tp3575
Rp3576
sg22
g8
(g12
S'\xd6+\xf0\x93J\xb3U@'
p3577
tp3578
Rp3579
sg26
I-1
sg27
I4081492
sbsS'AES'
p3580
(i__main__
Scrip
p3581
(dp3582
g4
S'AES Corp'
p3583
sg6
g3580
sg7
g8
(g12
S'\x1f\x92\xe6\xcdg\xb9;\xc0'
p3584
tp3585
Rp3586
sg18
g8
(g12
S'\x1b\xd1\n\x9b\x03\x89\x16@'
p3587
tp3588
Rp3589
sg22
g8
(g12
S'\x9c\xb2\xa6\xac)k8\xc0'
p3590
tp3591
Rp3592
sg26
I-1
sg27
I8112301
sbsS'AET'
p3593
(i__main__
Scrip
p3594
(dp3595
g4
S'Aetna Inc'
p3596
sg6
g3593
sg7
g8
(g12
S'\xe1Xq\xac8V1@'
p3597
tp3598
Rp3599
sg18
g8
(g12
S'\x95\xa0\x1b\x9d,\x1f:@'
p3600
tp3601
Rp3602
sg22
g8
(g12
S'\xf8#`(\xddbm@'
p3603
tp3604
Rp3605
sg26
I-1
sg27
I2719443
sbsS'EMC'
p3606
(i__main__
Scrip
p3607
(dp3608
g4
S'EMC Corp'
p3609
sg6
g3606
sg7
g8
(g12
S'\xd8\xa3\x83\xdb\x91\xdd1\xc0'
p3610
tp3611
Rp3612
sg18
g8
(g12
S'\xe7\xc8\xb892\xeeS@'
p3613
tp3614
Rp3615
sg22
g8
(g12
S'v3\xd4\xcc\xa5OC@'
p3616
tp3617
Rp3618
sg26
I-1
sg27
I10145946
sbsS'EMN'
p3619
(i__main__
Scrip
p3620
(dp3621
g4
S'Eastman Chemical'
p3622
sg6
g3619
sg7
g8
(g12
S'e=0\xb8\x90(<\xc0'
p3623
tp3624
Rp3625
sg18
g8
(g12
S'w\n\xd9\x03\xe0\xe9D@'
p3626
tp3627
Rp3628
sg22
g8
(g12
S'V3`4"@\x14@'
p3629
tp3630
Rp3631
sg26
I-1
sg27
I1840156
sbsS'GRMN'
p3632
(i__main__
Scrip
p3633
(dp3634
g4
S'Garmin Ltd'
p3635
sg6
g3632
sg7
g8
(g12
S'\xb4\x19\x8bn\xf0\xcaB\xc0'
p3636
tp3637
Rp3638
sg18
g8
(g12
S'q9/\x16\x02\x979\xc0'
p3639
tp3640
Rp3641
sg22
g8
(g12
S'\xd7(\xd0\xbdD\x98\x13@'
p3642
tp3643
Rp3644
sg26
I-1
sg27
I1388709
sbsS'ESRX'
p3645
(i__main__
Scrip
p3646
(dp3647
g4
S'Express Scripts Holding'
p3648
sg6
g3645
sg7
g8
(g12
S'7\x94v\xf8\xf9\xc70\xc0'
p3649
tp3650
Rp3651
sg18
g8
(g12
S',\xfb\n0\x92\x1f"\xc0'
p3652
tp3653
Rp3654
sg22
g8
(g12
S'_\xb2%|B\x178\xc0'
p3655
tp3656
Rp3657
sg26
I-1
sg27
I5472999
sbsS'AMAT'
p3658
(i__main__
Scrip
p3659
(dp3660
g4
S'Applied Materials'
p3661
sg6
g3658
sg7
g8
(g12
S'l\n\xf6\x83k\xaf9\xc0'
p3662
tp3663
Rp3664
sg18
g8
(g12
S'\x05w\xf6\xd6\xb3\xbe4\xc0'
p3665
tp3666
Rp3667
sg22
g8
(g12
S'\xc7\xc9\xe4mu\xb9B@'
p3668
tp3669
Rp3670
sg26
I-1
sg27
I14522201
sbsS'IGT'
p3671
(i__main__
Scrip
p3672
(dp3673
g4
S'Intl Game Technology'
p3674
sg6
g3671
sg7
g8
(g12
S'\x1cv\x9c\x0eP12\xc0'
p3675
tp3676
Rp3677
sg18
g8
(g12
S'\x81\xd1\x88\x00\xe1\x05P\xc0'
p3678
tp3679
Rp3680
sg22
g8
(g12
S'\x9d6\xd0i\x03\x9d:\xc0'
p3681
tp3682
Rp3683
sg26
I-1
sg27
I576270
sbsS'AEE'
p3684
(i__main__
Scrip
p3685
(dp3686
g4
S'Ameren Corp'
p3687
sg6
g3684
sg7
g8
(g12
S'f\xef<\x81\x1cX#@'
p3688
tp3689
Rp3690
sg18
g8
(g12
S'g8\x93\xf9u\xb1\xe2?'
p3691
tp3692
Rp3693
sg22
g8
(g12
S'\xb0K\xab\x83\x1c\x98V@'
p3694
tp3695
Rp3696
sg26
I-1
sg27
I2966202
sbsS'CTAS'
p3697
(i__main__
Scrip
p3698
(dp3699
g4
S'Cintas Corp'
p3700
sg6
g3697
sg7
g8
(g12
S'\xf76\xf6\xab\x97\x161@'
p3701
tp3702
Rp3703
sg18
g8
(g12
S'\x18\xad\x10\xabV\xa2W@'
p3704
tp3705
Rp3706
sg22
g8
(g12
S'~\x06\xbbn\xfaqm@'
p3707
tp3708
Rp3709
sg26
I-1
sg27
I765917
sbsS'EMR'
p3710
(i__main__
Scrip
p3711
(dp3712
g4
S'Emerson Electric'
p3713
sg6
g3710
sg7
g8
(g12
S'\x81,g\xe04&:\xc0'
p3714
tp3715
Rp3716
sg18
g8
(g12
S'4\xdb\x94\x9a[\x109\xc0'
p3717
tp3718
Rp3719
sg22
g8
(g12
S'\xc2\x87\x17+X/\x0f@'
p3720
tp3721
Rp3722
sg26
I-1
sg27
I3905385
sbsS'FDX'
p3723
(i__main__
Scrip
p3724
(dp3725
g4
S'FedEx Corp'
p3726
sg6
g3723
sg7
g8
(g12
S"Fn\n'\x0787\xc0"
p3727
tp3728
Rp3729
sg18
g8
(g12
S'\xaa_\x19\x84[\xc9V@'
p3730
tp3731
Rp3732
sg22
g8
(g12
S'\xe8\xbe(}\xb5\xd2P@'
p3733
tp3734
Rp3735
sg26
I-1
sg27
I1600359
sbsS'CRM'
p3736
(i__main__
Scrip
p3737
(dp3738
g4
S'salesforce.com inc'
p3739
sg6
g3736
sg7
g8
(g12
S']4\xa8R-\x7f \xc0'
p3740
tp3741
Rp3742
sg22
g8
(g12
S'z&2\xb3\xba\x1d\x19\xc0'
p3743
tp3744
Rp3745
sg26
I-1
sg27
I19018290
sbsS'NWSA'
p3746
(i__main__
Scrip
p3747
(dp3748
g6
g3746
sg27
I9867806
sg7
g8
(g12
S'\xc0\x7f\xaaq\xf6N;\xc0'
p3749
tp3750
Rp3751
sg4
S'News Corp Cl A'
p3752
sg26
I-1
sbsS'PX'
p3753
(i__main__
Scrip
p3754
(dp3755
g4
S'Praxair Inc'
p3756
sg6
g3753
sg7
g8
(g12
S'P\x94\xd6>S\x0c1\xc0'
p3757
tp3758
Rp3759
sg18
g8
(g12
S'\xbaE\xce\x01A$g@'
p3760
tp3761
Rp3762
sg22
g8
(g12
S'/ER\xd1)XB@'
p3763
tp3764
Rp3765
sg26
I-1
sg27
I2014872
sbsS'PG'
p3766
(i__main__
Scrip
p3767
(dp3768
g4
S'Procter & Gamble'
p3769
sg6
g3766
sg7
g8
(g12
S'W=\x08\x18\xc6\x81"\xc0'
p3770
tp3771
Rp3772
sg18
g8
(g12
S'\xc3\x8f\xd8\r\xf2\xb94\xc0'
p3773
tp3774
Rp3775
sg22
g8
(g12
S'\xee\xb9\x8ae\xe3\x9b=@'
p3776
tp3777
Rp3778
sg26
I-1
sg27
I9879132
sbsS'PH'
p3779
(i__main__
Scrip
p3780
(dp3781
g4
S'Parker-Hannifin'
p3782
sg6
g3779
sg7
g8
(g12
S'\xc7\\,\xac\x01\x0c5\xc0'
p3783
tp3784
Rp3785
sg18
g8
(g12
S'\xa9\x11\x96{\x1a\xc1R@'
p3786
tp3787
Rp3788
sg22
g8
(g12
S'\x9eJM\xcf\xf0IS@'
p3789
tp3790
Rp3791
sg26
I-1
sg27
I2301851
sbsS'PM'
p3792
(i__main__
Scrip
p3793
(dp3794
g4
S'Philip Morris Intl'
p3795
sg6
g3792
sg7
g8
(g12
S'\xda\xb3w\x81\xb1\x84\xfa?'
p3796
tp3797
Rp3798
sg22
g8
(g12
S'\rV\xe8\x0cV\x08V@'
p3799
tp3800
Rp3801
sg26
I-1
sg27
I4519741
sbsS'EFX'
p3802
(i__main__
Scrip
p3803
(dp3804
g4
S'Equifax Inc'
p3805
sg6
g3802
sg7
g8
(g12
S'\x91q\xc0Mj\xdf9@'
p3806
tp3807
Rp3808
sg18
g8
(g12
S'\xfbPR`s\xfbp@'
p3809
tp3810
Rp3811
sg22
g8
(g12
S'_}\x05\x14X\xdfj@'
p3812
tp3813
Rp3814
sg26
I-1
sg27
I1046256
sbsS'C'
p3815
(i__main__
Scrip
p3816
(dp3817
g4
S'Citigroup Inc'
p3818
sg6
g3815
sg7
g8
(g12
S'\xca\xd61\x88=b9\xc0'
p3819
tp3820
Rp3821
sg18
g8
(g12
S'\xc7s\xe52Tx2\xc0'
p3822
tp3823
Rp3824
sg22
g8
(g12
S'\xcc\xdfk#\xd6\x05\x92@'
p3825
tp3826
Rp3827
sg26
I-1
sg27
I23521670
sbsS'QCOM'
p3828
(i__main__
Scrip
p3829
(dp3830
g4
S'QUALCOMM Inc'
p3831
sg6
g3828
sg7
g8
(g12
S'\x9a\xf0\x90`\xaf\xd8B\xc0'
p3832
tp3833
Rp3834
sg18
g8
(g12
S'\xff\xe6\xd4\xe1j\xe49\xc0'
p3835
tp3836
Rp3837
sg22
g8
(g12
S'\xadd+\x11\x00\xa7.@'
p3838
tp3839
Rp3840
sg26
I-1
sg27
I10396853
sbsS'XRX'
p3841
(i__main__
Scrip
p3842
(dp3843
g4
S'Xerox Corp'
p3844
sg6
g3841
sg7
g8
(g12
S'U\x7fm3\xbd\xdf=\xc0'
p3845
tp3846
Rp3847
sg18
g8
(g12
S'\xe6,,\x02~\x8c@\xc0'
p3848
tp3849
Rp3850
sg22
g8
(g12
S'y\x7f\xa9\xfd\xa5\xf6\x1f@'
p3851
tp3852
Rp3853
sg26
I-1
sg27
I13052278
sbsS'ANF'
p3854
(i__main__
Scrip
p3855
(dp3856
g4
S'Abercrombie & Fitch CoA'
p3857
sg6
g3854
sg7
g8
(g12
S'p\x1c\xc7q\x1c\xc71\xc0'
p3858
tp3859
Rp3860
sg18
g8
(g12
S'\x95\x86\x0cQ\xee\xe75\xc0'
p3861
tp3862
Rp3863
sg22
g8
(g12
S'\xf8\x0b\xe9?\xd5\x93?\xc0'
p3864
tp3865
Rp3866
sg26
I-1
sg27
I2832900
sbsS'MOS'
p3867
(i__main__
Scrip
p3868
(dp3869
g4
S'Mosaic Co'
p3870
sg6
g3867
sg7
g8
(g12
S'TR\x1db\x03\x9fF\xc0'
p3871
tp3872
Rp3873
sg18
g8
(g12
S'H\xc5\xf2\xf6\xa8X_@'
p3874
tp3875
Rp3876
sg22
g8
(g12
S'd\x7f\x15m\x9a5K\xc0'
p3877
tp3878
Rp3879
sg26
I-1
sg27
I4646004
sbsS'PSA'
p3880
(i__main__
Scrip
p3881
(dp3882
g4
S'Public Storage'
p3883
sg6
g3880
sg7
g8
(g12
S'\xd7\xb9i\x80D\x84;@'
p3884
tp3885
Rp3886
sg18
g8
(g12
S'\xf3pX\xb4\x1b\x98x@'
p3887
tp3888
Rp3889
sg22
g8
(g12
S"F\x89\xac\x04\xe1'j@"
p3890
tp3891
Rp3892
sg26
I-1
sg27
I1178928
sbsS'PSX'
p3893
(i__main__
Scrip
p3894
(dp3895
g6
g3893
sg27
I4631868
sg7
g8
(g12
S'\x8c\xb9DxR\x90\x14@'
p3896
tp3897
Rp3898
sg4
S'Phillips 66'
p3899
sg26
I-1
sbsS'MON'
p3900
(i__main__
Scrip
p3901
(dp3902
g4
S'Monsanto Co'
p3903
sg6
g3900
sg7
g8
(g12
S'\xbc@\x990l\xd54\xc0'
p3904
tp3905
Rp3906
sg18
g8
(g12
S'\xf9\x87dPy\xb3h@'
p3907
tp3908
Rp3909
sg22
g8
(g12
S',z\r\xeeP?7@'
p3910
tp3911
Rp3912
sg26
I-1
sg27
I2923068
sbsS'MCHP'
p3913
(i__main__
Scrip
p3914
(dp3915
g4
S'Microchip Technology'
p3916
sg6
g3913
sg7
g8
(g12
S'\xb3p\xe1\xff\x81\xfe\xf8\xbf'
p3917
tp3918
Rp3919
sg18
g8
(g12
S';\xd4I\xff{YG@'
p3920
tp3921
Rp3922
sg22
g8
(g12
S';\x95\xf1T\xc6SN@'
p3923
tp3924
Rp3925
sg26
I-1
sg27
I3340383
sbsS'ALTR'
p3926
(i__main__
Scrip
p3927
(dp3928
g4
S'Altera Corp'
p3929
sg6
g3926
sg7
g8
(g12
S'\xff\x8cq\x87\xf0\xe8J@'
p3930
tp3931
Rp3932
sg18
g8
(g12
S'K) \xd4\x9dN[@'
p3933
tp3934
Rp3935
sg22
g8
(g12
S'\xbd\xe9Moz\xd3`@'
p3936
tp3937
Rp3938
sg26
I-1
sg27
I3079334
sbsS'ETR'
p3939
(i__main__
Scrip
p3940
(dp3941
g4
S'Entergy Corp'
p3942
sg6
g3939
sg7
g8
(g12
S"E\xaa\x8dg\xdf)'\xc0"
p3943
tp3944
Rp3945
sg18
g8
(g12
S')H;u\xf0E9@'
p3946
tp3947
Rp3948
sg22
g8
(g12
S'\xd5\x8a\x9c\x0e\xe8D\x19\xc0'
p3949
tp3950
Rp3951
sg26
I-1
sg27
I1652175
sbsS'COP'
p3952
(i__main__
Scrip
p3953
(dp3954
g4
S'ConocoPhillips'
p3955
sg6
g3952
sg7
g8
(g12
S'\x02\xf67`\x18\x11K\xc0'
p3956
tp3957
Rp3958
sg18
g8
(g12
S'\x15\x0f\x90\x17\xd1\xb4J\xc0'
p3959
tp3960
Rp3961
sg22
g8
(g12
S'\xf7\xf4\xa2\xa6\xc58@\xc0'
p3962
tp3963
Rp3964
sg26
I-1
sg27
I46116949
sbsS'DVN'
p3965
(i__main__
Scrip
p3966
(dp3967
g4
S'Devon Energy'
p3968
sg6
g3965
sg7
g8
(g12
S'\xd9^\xa3;\x1c\xc1N\xc0'
p3969
tp3970
Rp3971
sg18
g8
(g12
S'\xaa\xef\x86bA\x05K\xc0'
p3972
tp3973
Rp3974
sg22
g8
(g12
S'\xcc\xe4D\x1f\xcb/P\xc0'
p3975
tp3976
Rp3977
sg26
I-1
sg27
I9498654
sbsS'KMB'
p3978
(i__main__
Scrip
p3979
(dp3980
g4
S'Kimberly-Clark'
p3981
sg6
g3978
sg7
g8
(g12
S'AK\x98\xa2\x9dp*@'
p3982
tp3983
Rp3984
sg18
g8
(g12
S'\xb9|\xe7\x05![Z@'
p3985
tp3986
Rp3987
sg22
g8
(g12
S'\xd2D\x98\x1f\x17\x83]@'
p3988
tp3989
Rp3990
sg26
I-1
sg27
I1823972
sbsS'COV'
p3991
(i__main__
Scrip
p3992
(dp3993
g4
S'Covidien Plc'
p3994
sg6
g3991
sg7
g8
(g12
S'\xff\xff\xff\xff\xff\xaeP@'
p3995
tp3996
Rp3997
sg22
g8
(g12
S'\xa07u\xceL>e@'
p3998
tp3999
Rp4000
sg26
I-1
sg27
I24887138
sbsS'DVA'
p4001
(i__main__
Scrip
p4002
(dp4003
g4
S'DaVita HealthCare Partner'
p4004
sg6
g4001
sg7
g8
(g12
S'\x8a=)\xd0\xefn,\xc0'
p4005
tp4006
Rp4007
sg18
g8
(g12
S'\x84I\r\xd1\x94\x18C@'
p4008
tp4009
Rp4010
sg22
g8
(g12
S'\x94\x1b\xe8NE\xbc\r@'
p4011
tp4012
Rp4013
sg26
I-1
sg27
I906695
sbsS'KMI'
p4014
(i__main__
Scrip
p4015
(dp4016
g6
g4014
sg27
I22018516
sg7
g8
(g12
S'\xbaoQM\xf6\xaeM\xc0'
p4017
tp4018
Rp4019
sg4
S'Kinder Morgan'
p4020
sg26
I-1
sbsS'GWW'
p4021
(i__main__
Scrip
p4022
(dp4023
g4
S'Grainger (W.W.)'
p4024
sg6
g4021
sg7
g8
(g12
S'\xdd\xf7<\xaf\xb4+/\xc0'
p4025
tp4026
Rp4027
sg18
g8
(g12
S'*\xb7\xfb;\xb8\xfct@'
p4028
tp4029
Rp4030
sg22
g8
(g12
S'\xfe?\x81\r\xc4m[@'
p4031
tp4032
Rp4033
sg26
I-1
sg27
I1203454
sbsS'FISV'
p4034
(i__main__
Scrip
p4035
(dp4036
g4
S'Fiserv Inc'
p4037
sg6
g4034
sg7
g8
(g12
S'\x13+!\xbf\x99\xb5A@'
p4038
tp4039
Rp4040
sg18
g8
(g12
S'\x11\x143<\x99\xb4b@'
p4041
tp4042
Rp4043
sg22
g8
(g12
S'\x82\x99\xd2\xa6\x0c\xb6Z@'
p4044
tp4045
Rp4046
sg26
I-1
sg27
I1448921
sbsS'COG'
p4047
(i__main__
Scrip
p4048
(dp4049
g4
S'Cabot Oil & Gas'
p4050
sg6
g4047
sg7
g8
(g12
S'\xa22.L\xf4"C\xc0'
p4051
tp4052
Rp4053
sg18
g8
(g12
S':,\xf4\x9dg\xd5>\xc0'
p4054
tp4055
Rp4056
sg22
g8
(g12
S'\x15@j\x97\xb5\x1eG\xc0'
p4057
tp4058
Rp4059
sg26
I-1
sg27
I8241775
sbsS'COF'
p4060
(i__main__
Scrip
p4061
(dp4062
g4
S'Capital One Financial'
p4063
sg6
g4060
sg7
g8
(g12
S'\xd8\xa9B\x9a\xa4\xe66\xc0'
p4064
tp4065
Rp4066
sg18
g8
(g12
S'x\x03\x94n\x80\xd2%\xc0'
p4067
tp4068
Rp4069
sg22
g8
(g12
S'9\x93jGgRT@'
p4070
tp4071
Rp4072
sg26
I-1
sg27
I3495685
sbsS'COH'
p4073
(i__main__
Scrip
p4074
(dp4075
g4
S'Coach Inc'
p4076
sg6
g4073
sg7
g8
(g12
S'\x0c\x91\xa1\x7fi#\xf0?'
p4077
tp4078
Rp4079
sg18
g8
(g12
S'C\x14\xd2\x88(?\x1f\xc0'
p4080
tp4081
Rp4082
sg22
g8
(g12
S'\x17s\x1bZ-\x04\x01@'
p4083
tp4084
Rp4085
sg26
I-1
sg27
I6183052
sbsS'PEG'
p4086
(i__main__
Scrip
p4087
(dp4088
g4
S'Public Svc Enterprises'
p4089
sg6
g4086
sg7
g8
(g12
S'\xec?\x08\xe0\xfb\x0f @'
p4090
tp4091
Rp4092
sg18
g8
(g12
S' a\xb9\xa7\x11\x16\x1e\xc0'
p4093
tp4094
Rp4095
sg22
g8
(g12
S'Q\xb3\x9cn\xa8:D@'
p4096
tp4097
Rp4098
sg26
I-1
sg27
I4105358
sbsS'ETN'
p4099
(i__main__
Scrip
p4100
(dp4101
g4
S'Eaton Corp Plc'
p4102
sg6
g4099
sg7
g8
(g12
S'\xac\xdb\xcf\x99\x9803\xc0'
p4103
tp4104
Rp4105
sg18
g8
(g12
S'\xdf\x1b+\x85\x16WK\xc0'
p4106
tp4107
Rp4108
sg22
g8
(g12
S"\xa11g\xcc\x19s'\xc0"
p4109
tp4110
Rp4111
sg26
I-1
sg27
I4260415
sbsS'COL'
p4112
(i__main__
Scrip
p4113
(dp4114
g4
S'Rockwell Collins'
p4115
sg6
g4112
sg7
g8
(g12
S'\xa1\xdc\xf0\xe7\xc2\x95\x12\xc0'
p4116
tp4117
Rp4118
sg18
g8
(g12
S'n\xdb\xb6m\xdb\xe4c@'
p4119
tp4120
Rp4121
sg22
g8
(g12
S'Z[\xe0\xa9\xdb\xccJ@'
p4122
tp4123
Rp4124
sg26
I-1
sg27
I1426217
sbsS'BCR'
p4125
(i__main__
Scrip
p4126
(dp4127
g4
S'Bard (C.R.)'
p4128
sg6
g4125
sg7
g8
(g12
S'/p\x89\x9aL\xeb$@'
p4129
tp4130
Rp4131
sg18
g8
(g12
S'\x16\xb2\x90\x85,\xb4X@'
p4132
tp4133
Rp4134
sg22
g8
(g12
S'\xbb<\xf5E\xb9\x1b`@'
p4135
tp4136
Rp4137
sg26
I-1
sg27
I503045
sbsS'KMX'
p4138
(i__main__
Scrip
p4139
(dp4140
g4
S'CarMax Inc'
p4141
sg6
g4138
sg7
g8
(g12
S'$0|\xe8\xff\xca4\xc0'
p4142
tp4143
Rp4144
sg18
g8
(g12
S'\x87<s\xde\x91\xc89@'
p4145
tp4146
Rp4147
sg22
g8
(g12
S'\xe0\x16@\xeep\\Z@'
p4148
tp4149
Rp4150
sg26
I-1
sg27
I3113952
sbsS'FDO'
p4151
(i__main__
Scrip
p4152
(dp4153
g4
S'Family Dollar Stores'
p4154
sg6
g4151
sg7
g8
(g12
S':\n\x1c\xc3.3A@'
p4155
tp4156
Rp4157
sg18
g8
(g12
S'\xd2E\x17]t\x11\\@'
p4158
tp4159
Rp4160
sg22
g8
(g12
S'\x99\xee\xb9\xb6_\x01g@'
p4161
tp4162
Rp4163
sg26
I-1
sg27
I9392057
sbsS'DLTR'
p4164
(i__main__
Scrip
p4165
(dp4166
g4
S'Dollar Tree'
p4167
sg6
g4164
sg7
g8
(g12
S'\x04\x85\x9e"\xea\xd77@'
p4168
tp4169
Rp4170
sg18
g8
(g12
S'\xc8f\xe4P\x97%a@'
p4171
tp4172
Rp4173
sg22
g8
(g12
S'\x18V\xec\xd1\xf2wM@'
p4174
tp4175
Rp4176
sg26
I-1
sg27
I4388500
sbsS'QEP'
p4177
(i__main__
Scrip
p4178
(dp4179
g6
g4177
sg27
I2782187
sg7
g8
(g12
S'{\x85z\x85z\xc5C\xc0'
p4180
tp4181
Rp4182
sg4
S'QEP Resources'
p4183
sg26
I-1
sbsS'CI'
p4184
(i__main__
Scrip
p4185
(dp4186
g4
S'Cigna Corp'
p4187
sg6
g4184
sg7
g8
(g12
S'\xb7\x8e\xfd]\x1b\x8a=@'
p4188
tp4189
Rp4190
sg18
g8
(g12
S'\xa1\xcc\x8f\x06\xaf\xbba@'
p4191
tp4192
Rp4193
sg22
g8
(g12
S'\x199\xc3\x82K\xadr@'
p4194
tp4195
Rp4196
sg26
I-1
sg27
I1558662
sbsS'SRE'
p4197
(i__main__
Scrip
p4198
(dp4199
g4
S'Sempra Energy'
p4200
sg6
g4197
sg7
g8
(g12
S'\x185\xd7\xa6\xe9c*\xc0'
p4201
tp4202
Rp4203
sg18
g8
(g12
S'\x99\xac\xe7\x98\xac\xe7i@'
p4204
tp4205
Rp4206
sg22
g8
(g12
S'B\xd4\x9a\xd2:\xf1V@'
p4207
tp4208
Rp4209
sg26
I-1
sg27
I1316755
sbsS'WAG'
p4210
(i__main__
Scrip
p4211
(dp4212
g4
S'Walgreen Co'
p4213
sg6
g4210
sg7
g8
(g12
S'm\xdb\xb6m\xdb\xe6A@'
p4214
tp4215
Rp4216
sg18
g8
(g12
S'pJH\xa1\x1c\x08a@'
p4217
tp4218
Rp4219
sg22
g8
(g12
S'I\x02\xc6g\x10\xebf@'
p4220
tp4221
Rp4222
sg26
I-1
sg27
I2800748
sbsS'CB'
p4223
(i__main__
Scrip
p4224
(dp4225
g4
S'Chubb Corp'
p4226
sg6
g4223
sg7
g8
(g12
S'\x10j\\\x9bf?%@'
p4227
tp4228
Rp4229
sg18
g8
(g12
S'\xb8\xd1\x1f\n\xc9EM@'
p4230
tp4231
Rp4232
sg22
g8
(g12
S's\xdd\xf2t\x9bi`@'
p4233
tp4234
Rp4235
sg26
I-1
sg27
I2708182
sbsS'CA'
p4236
(i__main__
Scrip
p4237
(dp4238
g4
S'CA Inc'
p4239
sg6
g4236
sg7
g8
(g12
S'\xa7\xcd\x01OH\xfe\x13\xc0'
p4240
tp4241
Rp4242
sg18
g8
(g12
S')\x88\xafv\xfe\xe7\x18@'
p4243
tp4244
Rp4245
sg22
g8
(g12
S' \x83xfar>@'
p4246
tp4247
Rp4248
sg26
I-1
sg27
I7673371
sbsS'CF'
p4249
(i__main__
Scrip
p4250
(dp4251
g4
S'CF Industries Hldgs'
p4252
sg6
g4249
sg7
g8
(g12
S'^\xa8\xc4\xd1\xf01V\xc0'
p4253
tp4254
Rp4255
sg22
g8
(g12
S'\xdeu\xe1\xfd@\x0cQ\xc0'
p4256
tp4257
Rp4258
sg26
I-1
sg27
I4211605
sbsS'WAT'
p4259
(i__main__
Scrip
p4260
(dp4261
g4
S'Waters Corp'
p4262
sg6
g4259
sg7
g8
(g12
S'\x80R\xdc_\t\x0c\x05@'
p4263
tp4264
Rp4265
sg18
g8
(g12
S'_f\xe9\xd7uli@'
p4266
tp4267
Rp4268
sg22
g8
(g12
S'\x1a%%"\xee\xbeX@'
p4269
tp4270
Rp4271
sg26
I-1
sg27
I486004
sbsS'ZTS'
p4272
(i__main__
Scrip
p4273
(dp4274
g6
g4272
sg27
I4047634
sg7
g8
(g12
S'\xbc\xff\x1b\xf8c\x0b\xfb?'
p4275
tp4276
Rp4277
sg4
S'Zoetis IncA'
p4278
sg26
I-1
sbsS'CHRW'
p4279
(i__main__
Scrip
p4280
(dp4281
g4
S'C.H. Robinson Worldwide'
p4282
sg6
g4279
sg7
g8
(g12
S'\xad\x9a\xc5\xcc\xfa=\x1a\xc0'
p4283
tp4284
Rp4285
sg18
g8
(g12
S'\xd3\xbaNT\xe5\x9fQ@'
p4286
tp4287
Rp4288
sg22
g8
(g12
S'\x85PI7\x8a\xd9;@'
p4289
tp4290
Rp4291
sg26
I-1
sg27
I3065546
sbsS'TDC'
p4292
(i__main__
Scrip
p4293
(dp4294
g4
S'Teradata Corp'
p4295
sg6
g4292
sg7
g8
(g12
S'\xe1D\xbc$ \x9cG\xc0'
p4296
tp4297
Rp4298
sg22
g8
(g12
S'\x1d\xbe\xfb\xd0Q\xca-\xc0'
p4299
tp4300
Rp4301
sg26
I-1
sg27
I4911136
sbsS'SBUX'
p4302
(i__main__
Scrip
p4303
(dp4304
g4
S'Starbucks Corp'
p4305
sg6
g4302
sg7
g8
(g12
S'c\x81y\xe9\xa4\x01>\xc0'
p4306
tp4307
Rp4308
sg18
g8
(g12
S'\x9d\x8b\xa9Hh\x9aE@'
p4309
tp4310
Rp4311
sg22
g8
(g12
S'\xa3N\x85\xd0\xdf\xdda@'
p4312
tp4313
Rp4314
sg26
I-1
sg27
I24261775
sbsS'PLD'
p4315
(i__main__
Scrip
p4316
(dp4317
g4
S'Prologis Inc'
p4318
sg6
g4315
sg7
g8
(g12
S'/\xbb+/\xa0j\x17\xc0'
p4319
tp4320
Rp4321
sg18
g8
(g12
S'R\xf0\xeb\xc9\xf3\xd3&@'
p4322
tp4323
Rp4324
sg22
g8
(g12
S'^\xb0\xff\x86"wM@'
p4325
tp4326
Rp4327
sg26
I-1
sg27
I2584347
sbsS'HCBK'
p4328
(i__main__
Scrip
p4329
(dp4330
g4
S'Hudson City Bancorp'
p4331
sg6
g4328
sg7
g8
(g12
S'\x8f\n\xf8\x85[{\x13@'
p4332
tp4333
Rp4334
sg18
g8
(g12
S'\xbe\xd08!t\xbcQ\xc0'
p4335
tp4336
Rp4337
sg22
g8
(g12
S'c\x07\x7f\x03\x8d77\xc0'
p4338
tp4339
Rp4340
sg26
I-1
sg27
I23875435
sbsS'PLL'
p4341
(i__main__
Scrip
p4342
(dp4343
g4
S'Pall Corp'
p4344
sg6
g4341
sg7
g8
(g12
S'\x86\x80\x93\xd8\xd8mH@'
p4345
tp4346
Rp4347
sg18
g8
(g12
S'\x8c\x18&E\x88\xddz@'
p4348
tp4349
Rp4350
sg22
g8
(g12
S'\x9eR\xd3\x04\x8e\x91s@'
p4351
tp4352
Rp4353
sg26
I-1
sg27
I11036964
sbsS'CL'
p4354
(i__main__
Scrip
p4355
(dp4356
g4
S'Colgate-Palmolive'
p4357
sg6
g4354
sg7
g8
(g12
S'\x07\xc87\xf0\xd8\x99\x08\xc0'
p4358
tp4359
Rp4360
sg18
g8
(g12
S"\xd1\x0ff'\xe2,2@"
p4361
tp4362
Rp4363
sg22
g8
(g12
S'\xe2\xb40\xcar}0\xc0'
p4364
tp4365
Rp4366
sg26
I-1
sg27
I3879910
sbsS'CMCSA'
p4367
(i__main__
Scrip
p4368
(dp4369
g4
S'Comcast ClA'
p4370
sg6
g4367
sg7
g8
(g12
S'\x0e\xe9\x81\xca\xd9\xad%@'
p4371
tp4372
Rp4373
sg18
g8
(g12
S'\xfez\xcf\xc5\x8a6X@'
p4374
tp4375
Rp4376
sg22
g8
(g12
S'\xfbAG\x05\xbe\xacq@'
p4377
tp4378
Rp4379
sg26
I-1
sg27
I24534312
sbsS'MKC'
p4380
(i__main__
Scrip
p4381
(dp4382
g4
S'McCormick & Co'
p4383
sg6
g4380
sg7
g8
(g12
S'\xe2\x80\xc7\x1f\x0ex2@'
p4384
tp4385
Rp4386
sg18
g8
(g12
S'\xdd\xe8\x91C\xe9\xf4d@'
p4387
tp4388
Rp4389
sg22
g8
(g12
S'R\xd0\x1b\x05\xbdAa@'
p4390
tp4391
Rp4392
sg26
I-1
sg27
I781694
sbsS'GNW'
p4393
(i__main__
Scrip
p4394
(dp4395
g4
S'Genworth FinancialA'
p4396
sg6
g4393
sg7
g8
(g12
S'p\x17@cCXP\xc0'
p4397
tp4398
Rp4399
sg22
g8
(g12
S'\xe48\x8e\xe38\xfeL\xc0'
p4400
tp4401
Rp4402
sg26
I-1
sg27
I7298807
sbsS'CVX'
p4403
(i__main__
Scrip
p4404
(dp4405
g4
S'Chevron Corp'
p4406
sg6
g4403
sg7
g8
(g12
S'\xcb\x8e\xf56\xec\xd3<\xc0'
p4407
tp4408
Rp4409
sg18
g8
(g12
S'\t\xc7\x85\x00\xaf\n\x18\xc0'
p4410
tp4411
Rp4412
sg22
g8
(g12
S'\xca\xd6\xb4\xae6.2@'
p4413
tp4414
Rp4415
sg26
I-1
sg27
I15008337
sbsS'AIZ'
p4416
(i__main__
Scrip
p4417
(dp4418
g4
S'Assurant Inc'
p4419
sg6
g4416
sg7
g8
(g12
S'\xd7\xd2\xd2\xd2\xd2\xd2.@'
p4420
tp4421
Rp4422
sg18
g8
(g12
S'\xbdS\xd7rp\xb3i@'
p4423
tp4424
Rp4425
sg22
g8
(g12
S'L=\x8b\xcdG|b@'
p4426
tp4427
Rp4428
sg26
I-1
sg27
I512210
sbsS'BXP'
p4429
(i__main__
Scrip
p4430
(dp4431
g4
S'Boston Properties'
p4432
sg6
g4429
sg7
g8
(g12
S'\xfa\x0c\x81\xb0\x9b\x0b$\xc0'
p4433
tp4434
Rp4435
sg18
g8
(g12
S'O\\K\xa6\x057^@'
p4436
tp4437
Rp4438
sg22
g8
(g12
S'M\x91\xa3\xf3\xb5>S@'
p4439
tp4440
Rp4441
sg26
I-1
sg27
I856000
sbsS'AIV'
p4442
(i__main__
Scrip
p4443
(dp4444
g4
S'Apartment Investment & Mg'
p4445
sg6
g4442
sg7
g8
(g12
S'y\x8eSv\xbaw\xf5?'
p4446
tp4447
Rp4448
sg18
g8
(g12
S'd\x0ca\x8d\x9e\xf3.@'
p4449
tp4450
Rp4451
sg22
g8
(g12
S'\x02\xb0\xb5\x1bH\xe7_@'
p4452
tp4453
Rp4454
sg26
I-1
sg27
I3323025
sbsS'CVS'
p4455
(i__main__
Scrip
p4456
(dp4457
g4
S'CVS Caremark Corp'
p4458
sg6
g4455
sg7
g8
(g12
S'Y\xd9\x81/g\x11\x11@'
p4459
tp4460
Rp4461
sg18
g8
(g12
S'\x8a\x9d\xd8\x89\x9dxc@'
p4462
tp4463
Rp4464
sg22
g8
(g12
S'*I\xd8\xb5\xab\xf4h@'
p4465
tp4466
Rp4467
sg26
I-1
sg27
I6324831
sbsS'LOW'
p4468
(i__main__
Scrip
p4469
(dp4470
g4
S'Lowes Cos'
p4471
sg6
g4468
sg7
g8
(g12
S'&\x98\x815\xeb\xab(@'
p4472
tp4473
Rp4474
sg18
g8
(g12
S"\x1a[\xfc\xa3,'1@"
p4475
tp4476
Rp4477
sg22
g8
(g12
S'ZZZZZRi@'
p4478
tp4479
Rp4480
sg26
I-1
sg27
I7480174
sbsS'AIG'
p4481
(i__main__
Scrip
p4482
(dp4483
g4
S'Amer Intl Group'
p4484
sg6
g4481
sg7
g8
(g12
S'p\tl\xdaO\x96\x00\xc0'
p4485
tp4486
Rp4487
sg18
g8
(g12
S'\x01\xbc8\xe8\x9a\x86;\xc0'
p4488
tp4489
Rp4490
sg22
g8
(g12
S'\x99\xeb\xfb\xcb(\x08a@'
p4491
tp4492
Rp4493
sg26
I-1
sg27
I13287715
sbsS'CVC'
p4494
(i__main__
Scrip
p4495
(dp4496
g4
S'Cablevision SysA'
p4497
sg6
g4494
sg7
g8
(g12
S'\xc3^\xe9\xcf\xd9\x8eM@'
p4498
tp4499
Rp4500
sg18
g8
(g12
S'\x01\xc5\xf8n7\xad=@'
p4501
tp4502
Rp4503
sg22
g8
(g12
S'\x97\xab\xf7J]\xb8B@'
p4504
tp4505
Rp4506
sg26
I-1
sg27
I1881699
sbsS'DIS'
p4507
(i__main__
Scrip
p4508
(dp4509
g4
S'Disney (Walt) Co'
p4510
sg6
g4507
sg7
g8
(g12
S'\xf8\x885l,\xcc\x11@'
p4511
tp4512
Rp4513
sg18
g8
(g12
S'\xe4S\xa6\x9d\x83\xb5o@'
p4514
tp4515
Rp4516
sg22
g8
(g12
S'\xc5\xbe+\xc3f\x0fk@'
p4517
tp4518
Rp4519
sg26
I-1
sg27
I8823003
sbsS'PPG'
p4520
(i__main__
Scrip
p4521
(dp4522
g4
S'PPG Indus'
p4523
sg6
g4520
sg7
g8
(g12
S'\xc9\x96iA\x01:K\xc0'
p4524
tp4525
Rp4526
sg18
g8
(g12
S'\x18\xbc\xe4#\xa0@L@'
p4527
tp4528
Rp4529
sg22
g8
(g12
S'\xe6\n\x84\xd2\x9blL@'
p4530
tp4531
Rp4532
sg26
I-1
sg27
I1538369
sbsS'MNST'
p4533
(i__main__
Scrip
p4534
(dp4535
g4
S'Monster Beverage'
p4536
sg6
g4533
sg7
g8
(g12
S'\xd2\xb8\x16\tj\xca,@'
p4537
tp4538
Rp4539
sg18
g8
(g12
S'B\xc3\xbe\x18\x11\xda\x8e@'
p4540
tp4541
Rp4542
sg22
g8
(g12
S'mGq\x82\xccak@'
p4543
tp4544
Rp4545
sg26
I-1
sg27
I2902843
sbsS'NSC'
p4546
(i__main__
Scrip
p4547
(dp4548
g4
S'Norfolk Southern'
p4549
sg6
g4546
sg7
g8
(g12
S'A\xf0\xb5\xeb\x8a\x9fC\xc0'
p4550
tp4551
Rp4552
sg18
g8
(g12
S'\xado\x03\x86j\xbaj@'
p4553
tp4554
Rp4555
sg22
g8
(g12
S'\x1b70\xeaL\xe3H@'
p4556
tp4557
Rp4558
sg26
I-1
sg27
I1507349
sbsS'GAS'
p4559
(i__main__
Scrip
p4560
(dp4561
g4
S'AGL Resources'
p4562
sg6
g4559
sg7
g8
(g12
S'p\x84R\x04\xa6\xc57@'
p4563
tp4564
Rp4565
sg18
g8
(g12
S'\x14H\xed@\xae\xf7_@'
p4566
tp4567
Rp4568
sg22
g8
(g12
S'\x15b\xf8\xa0-\xb3T@'
p4569
tp4570
Rp4571
sg26
I-1
sg27
I635098
sbsS'PPL'
p4572
(i__main__
Scrip
p4573
(dp4574
g4
S'PPL Corp'
p4575
sg6
g4572
sg7
g8
(g12
S'\x00\xd2s@\x9f\xf8\xfa\xbf'
p4576
tp4577
Rp4578
sg18
g8
(g12
S'\xf7\x1ap\xd6\xbd\xaa4\xc0'
p4579
tp4580
Rp4581
sg22
g8
(g12
S'\xf1\x9f]\x1dO\xff5@'
p4582
tp4583
Rp4584
sg26
I-1
sg27
I7604234
sbsS'OKE'
p4585
(i__main__
Scrip
p4586
(dp4587
g4
S'ONEOK Inc'
p4588
sg6
g4585
sg7
g8
(g12
S'\xf7\x07\x19*;LK\xc0'
p4589
tp4590
Rp4591
sg18
g8
(g12
S'{\xa0N$\xb1\xb6.@'
p4592
tp4593
Rp4594
sg22
g8
(g12
S'\xfc\xe8\x8a\xb1\xc5BD\xc0'
p4595
tp4596
Rp4597
sg26
I-1
sg27
I4139642
sbsS'GOOG'
p4598
(i__main__
Scrip
p4599
(dp4600
g6
g4598
sg27
I5039693
sg7
g8
(g12
S'\xd5\xf0\\D\xb6U9@'
p4601
tp4602
Rp4603
sg4
S'Google IncA'
p4604
sg26
I-1
sbsS'JCP'
p4605
(i__main__
Scrip
p4606
(dp4607
g4
S'Penney (J.C.)'
p4608
sg6
g4605
sg7
g8
(g12
S'cL\xd9\xdc\xf2\x14\x05@'
p4609
tp4610
Rp4611
sg18
g8
(g12
S'\x1bFf9\xfb|R\xc0'
p4612
tp4613
Rp4614
sg22
g8
(g12
S'\xbdb2\x0b\xe6\xa4Q\xc0'
p4615
tp4616
Rp4617
sg26
I-1
sg27
I9437142
sbsS'LUK'
p4618
(i__main__
Scrip
p4619
(dp4620
g4
S'Leucadia National'
p4621
sg6
g4618
sg7
g8
(g12
S'.\x90I\xf1\x02\x19A\xc0'
p4622
tp4623
Rp4624
sg18
g8
(g12
S'\x9b\xa4\x0e9}\x18Q\xc0'
p4625
tp4626
Rp4627
sg22
g8
(g12
S'W\x9f\x92\x17r2:\xc0'
p4628
tp4629
Rp4630
sg26
I-1
sg27
I2592081
sbsS'IP'
p4631
(i__main__
Scrip
p4632
(dp4633
g4
S'Intl Paper'
p4634
sg6
g4631
sg7
g8
(g12
S'\xbe\x83\xf8\x0e\xe2\x0bB\xc0'
p4635
tp4636
Rp4637
sg18
g8
(g12
S'A\xe9\xfd&(\xbd4\xc0'
p4638
tp4639
Rp4640
sg22
g8
(g12
S'\x1e?\xc3m\xdc K@'
p4641
tp4642
Rp4643
sg26
I-1
sg27
I6474835
sbsS'HPQ'
p4644
(i__main__
Scrip
p4645
(dp4646
g4
S'Hewlett-Packard'
p4647
sg6
g4644
sg7
g8
(g12
S'\x82\xc2\x8e\x04\xd56R\xc0'
p4648
tp4649
Rp4650
sg18
g8
(g12
S'\xe2t\xee.4_L\xc0'
p4651
tp4652
Rp4653
sg22
g8
(g12
S'\xd8\xe8\xb4\xc4\xad\xc3S\xc0'
p4654
tp4655
Rp4656
sg26
I-1
sg27
I16972673
sbsS'IR'
p4657
(i__main__
Scrip
p4658
(dp4659
g4
S'Ingersoll-Rand Plc'
p4660
sg6
g4657
sg7
g8
(g12
S'$\nFc\x93\x922\xc0'
p4661
tp4662
Rp4663
sg18
g8
(g12
S'\xa3\xccyh\xd6y7\xc0'
p4664
tp4665
Rp4666
sg22
g8
(g12
S'\x90\xff\xbc;\xd3QH@'
p4667
tp4668
Rp4669
sg26
I-1
sg27
I3146530
sbsS'IRM'
p4670
(i__main__
Scrip
p4671
(dp4672
g4
S'Iron Mountain'
p4673
sg6
g4670
sg7
g8
(g12
S',\xe3o/\xed\xa1=\xc0'
p4674
tp4675
Rp4676
sg18
g8
(g12
S'\xe5x\x93\xe3M\x8eA\xc0'
p4677
tp4678
Rp4679
sg22
g8
(g12
S'\xa0\x04,\xa2\x04,6@'
p4680
tp4681
Rp4682
sg26
I-1
sg27
I1479627
sbsS'MTB'
p4683
(i__main__
Scrip
p4684
(dp4685
g4
S'M&T Bank'
p4686
sg6
g4683
sg7
g8
(g12
S'\\\xac\xff\xbd\xeb\x03,\xc0'
p4687
tp4688
Rp4689
sg18
g8
(g12
S'x\x8f\x87\xfe\xbe\xd40@'
p4690
tp4691
Rp4692
sg22
g8
(g12
S'A8!\xbb\xc0+H@'
p4693
tp4694
Rp4695
sg26
I-1
sg27
I1256269
sbsS'UTX'
p4696
(i__main__
Scrip
p4697
(dp4698
g4
S'United Technologies'
p4699
sg6
g4696
sg7
g8
(g12
S'\x9a\xf6\x93%\xb0i3\xc0'
p4700
tp4701
Rp4702
sg18
g8
(g12
S'\x93\xd8\x0e\xf6\x82\x19 \xc0'
p4703
tp4704
Rp4705
sg22
g8
(g12
S'fHnvy\t>@'
p4706
tp4707
Rp4708
sg26
I-1
sg27
I5130202
sbsS'JCI'
p4709
(i__main__
Scrip
p4710
(dp4711
g4
S'Johnson Controls'
p4712
sg6
g4709
sg7
g8
(g12
S'\xddu\x11\xeb\xe3\x95;\xc0'
p4713
tp4714
Rp4715
sg18
g8
(g12
S'>\x1a\xb8?\xf6\x98B\xc0'
p4716
tp4717
Rp4718
sg22
g8
(g12
S'\xacm\xc5r1\x83;@'
p4719
tp4720
Rp4721
sg26
I-1
sg27
I3353885
sbsS'PWR'
p4722
(i__main__
Scrip
p4723
(dp4724
g4
S'Quanta Services'
p4725
sg6
g4722
sg7
g8
(g12
S'\xc2x+\xfb\x1cBF\xc0'
p4726
tp4727
Rp4728
sg18
g8
(g12
S'#\xe9\x12\xd7\xd2\xdfZ@'
p4729
tp4730
Rp4731
sg22
g8
(g12
S'\x9f\xe7\xb8\xb2<X\n@'
p4732
tp4733
Rp4734
sg26
I-1
sg27
I2145613
sbsS'CSCO'
p4735
(i__main__
Scrip
p4736
(dp4737
g4
S'Cisco Systems'
p4738
sg6
g4735
sg7
g8
(g12
S'\xc1`\x91\x9e{\xd4+\xc0'
p4739
tp4740
Rp4741
sg18
g8
(g12
S'?s\x0cp\xf0s\xe3\xbf'
p4742
tp4743
Rp4744
sg22
g8
(g12
S'\xfd\xff\xff\xff\xff\x7f\x12\xc0'
p4745
tp4746
Rp4747
sg26
I-1
sg27
I31476602
sbsS'DAL'
p4748
(i__main__
Scrip
p4749
(dp4750
g4
S'Delta Air Lines'
p4751
sg6
g4748
sg7
g8
(g12
S'\x10}\x86>C\x9f\t\xc0'
p4752
tp4753
Rp4754
sg22
g8
(g12
S'\x18\xc5\xb9\x8eQ\xfcp@'
p4755
tp4756
Rp4757
sg26
I-1
sg27
I14184790
sbsS'ARG'
p4758
(i__main__
Scrip
p4759
(dp4760
g4
S'Airgas Inc'
p4761
sg6
g4758
sg7
g8
(g12
S'\xcc\xf7\x9a\x1c\xd4%6@'
p4762
tp4763
Rp4764
sg18
g8
(g12
S']\x1d\xa4\xa3\xb5)\x81@'
p4765
tp4766
Rp4767
sg22
g8
(g12
S'@\xdc_\xa27\xcek@'
p4768
tp4769
Rp4770
sg26
I-1
sg27
I1107196
sbsS'WDC'
p4771
(i__main__
Scrip
p4772
(dp4773
g4
S'Western Digital'
p4774
sg6
g4771
sg7
g8
(g12
S'\xb6\xa0Up\xf2\xbaJ\xc0'
p4775
tp4776
Rp4777
sg18
g8
(g12
S'\xa2\xdf/i$\xear@'
p4778
tp4779
Rp4780
sg22
g8
(g12
S'\x93\xed\xc9NH\xa6+@'
p4781
tp4782
Rp4783
sg26
I-1
sg27
I5185615
sbsS'BA'
p4784
(i__main__
Scrip
p4785
(dp4786
g4
S'Boeing Co'
p4787
sg6
g4784
sg7
g8
(g12
S'\\\xcb\xd6\xbd\x9e\t\x05\xc0'
p4788
tp4789
Rp4790
sg18
g8
(g12
S'\xcc\xc2\xc1"\x1b\rf@'
p4791
tp4792
Rp4793
sg22
g8
(g12
S'\xd0G /\xed\xa6Z@'
p4794
tp4795
Rp4796
sg26
I-1
sg27
I6171947
sbsS'BK'
p4797
(i__main__
Scrip
p4798
(dp4799
g4
S'Bank of New York Mellon'
p4800
sg6
g4797
sg7
g8
(g12
S'u ,\x98?L)\xc0'
p4801
tp4802
Rp4803
sg18
g8
(g12
S'\x0bs\x7fb\n\x9a\x17@'
p4804
tp4805
Rp4806
sg22
g8
(g12
S'|\xf1\xd11\xb4\x9d4@'
p4807
tp4808
Rp4809
sg26
I-1
sg27
I5527521
sbsS'DRI'
p4810
(i__main__
Scrip
p4811
(dp4812
g4
S'Darden Restaurants'
p4813
sg6
g4810
sg7
g8
(g12
S'\xec\xd3\xef\xd7yy\x17@'
p4814
tp4815
Rp4816
sg18
g8
(g12
S'|z\x153\xe8\xf0d@'
p4817
tp4818
Rp4819
sg22
g8
(g12
S'H#\xa2\xfc\xdc\x93K@'
p4820
tp4821
Rp4822
sg26
I-1
sg27
I2429400
sbsS'CCL'
p4823
(i__main__
Scrip
p4824
(dp4825
g4
S'Carnival Corp'
p4826
sg6
g4823
sg7
g8
(g12
S'\xf6\x8ar1\xd9\xed\x14@'
p4827
tp4828
Rp4829
sg18
g8
(g12
S'\xffY9\xd8#g\x06\xc0'
p4830
tp4831
Rp4832
sg22
g8
(g12
S"\x8c\x00\xb5t\x81'@@"
p4833
tp4834
Rp4835
sg26
I-1
sg27
I9083268
sbsS'CCI'
p4836
(i__main__
Scrip
p4837
(dp4838
g4
S'Crown Castle Intl'
p4839
sg6
g4836
sg7
g8
(g12
S'\xc10\xe2\r\x193\x13@'
p4840
tp4841
Rp4842
sg18
g8
(g12
S'Z\xf9\tqV\x9e\x83@'
p4843
tp4844
Rp4845
sg22
g8
(g12
S'\xe1;\xd9\xe1=\xf7`@'
p4846
tp4847
Rp4848
sg26
I-1
sg27
I2238749
sbsS'CCE'
p4849
(i__main__
Scrip
p4850
(dp4851
g4
S'Coca-Cola Enterprises'
p4852
sg6
g4849
sg7
g8
(g12
S'\x0e\xf2\xb8A\xe7\xac"@'
p4853
tp4854
Rp4855
sg18
g8
(g12
S'\xa2\x1e\xea\xa1\x1e\xeaX@'
p4856
tp4857
Rp4858
sg22
g8
(g12
S'\xfex\x19\x8c\x02\x8e`@'
p4859
tp4860
Rp4861
sg26
I-1
sg27
I2465927
sbsS'TIF'
p4862
(i__main__
Scrip
p4863
(dp4864
g4
S'Tiffany & Co'
p4865
sg6
g4862
sg7
g8
(g12
S'b\xdfN\xfe\x83\xf7B\xc0'
p4866
tp4867
Rp4868
sg18
g8
(g12
S'\xdcfpe\xb33Q@'
p4869
tp4870
Rp4871
sg22
g8
(g12
S'\xe5\x82IF\x9fmN@'
p4872
tp4873
Rp4874
sg26
I-1
sg27
I2997958
sbsS'FLIR'
p4875
(i__main__
Scrip
p4876
(dp4877
g4
S'FLIR Systems'
p4878
sg6
g4875
sg7
g8
(g12
S'#oxP\xb1\x11,\xc0'
p4879
tp4880
Rp4881
sg18
g8
(g12
S'L\x9c\xbf\xeb\xe2\x17<\xc0'
p4882
tp4883
Rp4884
sg22
g8
(g12
S"\x89'%\xd9\x82?\x17\xc0"
p4885
tp4886
Rp4887
sg26
I-1
sg27
I691162
sbsS'MYL'
p4888
(i__main__
Scrip
p4889
(dp4890
g4
S'Mylan Inc'
p4891
sg6
g4888
sg7
g8
(g12
S'Q\x93\xf2~&i\x18\xc0'
p4892
tp4893
Rp4894
sg18
g8
(g12
S'\r\xd7\xb4c\x02\x82]@'
p4895
tp4896
Rp4897
sg22
g8
(g12
S'3wk\xa5,hg@'
p4898
tp4899
Rp4900
sg26
I-1
sg27
I4221174
sbsS'LYB'
p4901
(i__main__
Scrip
p4902
(dp4903
g6
g4901
sg27
I5343095
sg7
g8
(g12
S'\xe12\xae\x90W\xa0"\xc0'
p4904
tp4905
Rp4906
sg4
S'LyondellBasell Industries'
p4907
sg26
I-1
sbsS'SIAL'
p4908
(i__main__
Scrip
p4909
(dp4910
g4
S'Sigma-Aldrich'
p4911
sg6
g4908
sg7
g8
(g12
S'w\x84,\xb016A@'
p4912
tp4913
Rp4914
sg18
g8
(g12
S'/#\x94\xc0`\x17c@'
p4915
tp4916
Rp4917
sg22
g8
(g12
S'\xfej\xdd\xda_-c@'
p4918
tp4919
Rp4920
sg26
I-1
sg27
I6250428
sbsS'D'
p4921
(i__main__
Scrip
p4922
(dp4923
g4
S'Dominion Resources'
p4924
sg6
g4921
sg7
g8
(g12
S'H\xee\xf6\x7f\x1a\x92\xfa\xbf'
p4925
tp4926
Rp4927
sg18
g8
(g12
S'\r\xa2*\x11H\xc4(@'
p4928
tp4929
Rp4930
sg22
g8
(g12
S'\x96\xee\r(\x13WW@'
p4931
tp4932
Rp4933
sg26
I-1
sg27
I3745592
sbsS'PEP'
p4934
(i__main__
Scrip
p4935
(dp4936
g4
S'PepsiCo Inc'
p4937
sg6
g4934
sg7
g8
(g12
S'\x1c\x1e\xff\xae(\xcf\xf3\xbf'
p4938
tp4939
Rp4940
sg18
g8
(g12
S'/\xd7\x0e\xcc\xb5\x03V@'
p4941
tp4942
Rp4943
sg22
g8
(g12
S'$\x05V\xe9\xeb\x96O@'
p4944
tp4945
Rp4946
sg26
I-1
sg27
I5538440
sbsS'BF.B'
p4947
(i__main__
Scrip
p4948
(dp4949
g4
S'Brown-FormanB'
p4950
sg6
g4947
sg7
g8
(g12
S'\x1c\x1e\xff\xae(\xcf\xf3\xbf'
p4951
tp4952
Rp4953
sg18
g8
(g12
S'/\xd7\x0e\xcc\xb5\x03V@'
p4954
tp4955
Rp4956
sg22
g8
(g12
S'$\x05V\xe9\xeb\x96O@'
p4957
tp4958
Rp4959
sg26
I-1
sg27
I5538440
sbsS'WMT'
p4960
(i__main__
Scrip
p4961
(dp4962
g4
S'Wal-Mart Stores'
p4963
sg6
g4960
sg7
g8
(g12
S'\x10\x97R\x07\xb6f.\xc0'
p4964
tp4965
Rp4966
sg18
g8
(g12
S'\xab`\x96\x94\x03"1@'
p4967
tp4968
Rp4969
sg22
g8
(g12
S'\xc8\x04l\x83\xceA9@'
p4970
tp4971
Rp4972
sg26
I-1
sg27
I14115044
sbsS'VZ'
p4973
(i__main__
Scrip
p4974
(dp4975
g4
S'Verizon Communications'
p4976
sg6
g4973
sg7
g8
(g12
S'\xab\x9c\x16\xb4\xb5\x8b\xdf?'
p4977
tp4978
Rp4979
sg18
g8
(g12
S'q\xd0kII\xdf@@'
p4980
tp4981
Rp4982
sg22
g8
(g12
S'\x9c\x9e\xa6\xe5Y\xdcQ@'
p4983
tp4984
Rp4985
sg26
I-1
sg27
I25548425
sbsS'T'
p4986
(i__main__
Scrip
p4987
(dp4988
g4
S'AT&T Inc'
p4989
sg6
g4986
sg7
g8
(g12
S'\x92D\x9e9\xefH\x14@'
p4990
tp4991
Rp4992
sg18
g8
(g12
S'\x1d\xec51RkI@'
p4993
tp4994
Rp4995
sg22
g8
(g12
S'\xf1\xbb\x12$f\xc7E@'
p4996
tp4997
Rp4998
sg26
I-1
sg27
I34456744
sbsS'WMB'
p4999
(i__main__
Scrip
p5000
(dp5001
g4
S'Williams Cos'
p5002
sg6
g4999
sg7
g8
(g12
S'\xf8\xa4\x84\x0b1<Q\xc0'
p5003
tp5004
Rp5005
sg18
g8
(g12
S'&5]\xf1\xc4\xedQ@'
p5006
tp5007
Rp5008
sg22
g8
(g12
S'\xda\x0f\x067B\n6\xc0'
p5009
tp5010
Rp5011
sg26
I-1
sg27
I11434082
sbsS'VRSN'
p5012
(i__main__
Scrip
p5013
(dp5014
g4
S'VeriSign Inc'
p5015
sg6
g5012
sg7
g8
(g12
S'\xaa7\x81\xd7\x93C:@'
p5016
tp5017
Rp5018
sg18
g8
(g12
S'\xe48\x8e\xe38\x06t@'
p5019
tp5020
Rp5021
sg22
g8
(g12
S'\x92\xc3\x1eDr\x18l@'
p5022
tp5023
Rp5024
sg26
I-1
sg27
I1507726
sbsS'OI'
p5025
(i__main__
Scrip
p5026
(dp5027
g4
S'Owens-Illinois'
p5028
sg6
g5025
sg7
g8
(g12
S'\x04\x9f\n\xb7\x84\xfdH\xc0'
p5029
tp5030
Rp5031
sg18
g8
(g12
S'~)0\x8a\xc9\xa0\x1a\xc0'
p5032
tp5033
Rp5034
sg22
g8
(g12
S'\x00\xc1\x92\xd3\x05\x10K\xc0'
p5035
tp5036
Rp5037
sg26
I-1
sg27
I1845746
sbsS'CINF'
p5038
(i__main__
Scrip
p5039
(dp5040
g4
S'Cincinnati Financial'
p5041
sg6
g5038
sg7
g8
(g12
S'/\x89$.G&1@'
p5042
tp5043
Rp5044
sg18
g8
(g12
S'7s~\xbe_\xd3B@'
p5045
tp5046
Rp5047
sg22
g8
(g12
S'\xa7\xbe(wy\x8a_@'
p5048
tp5049
Rp5050
sg26
I-1
sg27
I865037
sbsS'NTRS'
p5051
(i__main__
Scrip
p5052
(dp5053
g4
S'Northern Trust'
p5054
sg6
g5051
sg7
g8
(g12
S'_\x7f\xad+47&\xc0'
p5055
tp5056
Rp5057
sg18
g8
(g12
S'\xf9+\xefO\x84K7@'
p5058
tp5059
Rp5060
sg22
g8
(g12
S'\xf4|\x01\xdf\xfeM4@'
p5061
tp5062
Rp5063
sg26
I-1
sg27
I2091371
sbsS'AA'
p5064
(i__main__
Scrip
p5065
(dp5066
g4
S'Alcoa Inc'
p5067
sg6
g5064
sg7
g8
(g12
S'M\xa7\xb9\xad(\xbfI\xc0'
p5068
tp5069
Rp5070
sg18
g8
(g12
S'\xc1\xd8\x1e`B\x8aS\xc0'
p5071
tp5072
Rp5073
sg22
g8
(g12
S'(> \xbf\x1c2C\xc0'
p5074
tp5075
Rp5076
sg26
I-1
sg27
I42783441
sbsS'MWV'
p5077
(i__main__
Scrip
p5078
(dp5079
g4
S'MeadWestvaco Corp'
p5080
sg6
g5077
sg7
g8
(g12
S'r\xf5\x83\x8e\n|8@'
p5081
tp5082
Rp5083
sg18
g8
(g12
S'?*9/\x8b\xf8Y@'
p5084
tp5085
Rp5086
sg22
g8
(g12
S'p\x11\xceTG\xe2h@'
p5087
tp5088
Rp5089
sg26
I-1
sg27
I4451165
sbsS'HOG'
p5090
(i__main__
Scrip
p5091
(dp5092
g4
S'Harley-Davidson'
p5093
sg6
g5090
sg7
g8
(g12
S'\xbf\x1e\xf6\x94\xb9yC\xc0'
p5094
tp5095
Rp5096
sg18
g8
(g12
S'=\xf9\xae\xaf\x80A8\xc0'
p5097
tp5098
Rp5099
sg22
g8
(g12
S'[\xf6D\xa0\x8baT@'
p5100
tp5101
Rp5102
sg26
I-1
sg27
I2817878
sbsS'FLS'
p5103
(i__main__
Scrip
p5104
(dp5105
g4
S'Flowserve Corp'
p5106
sg6
g5103
sg7
g8
(g12
S'.\xb3\t\xe1d$C\xc0'
p5107
tp5108
Rp5109
sg18
g8
(g12
S'wxxxx\xc8U@'
p5110
tp5111
Rp5112
sg22
g8
(g12
S'\xd6\xef>N\xb4\xdcL\xc0'
p5113
tp5114
Rp5115
sg26
I-1
sg27
I1275909
sbsS'FLR'
p5116
(i__main__
Scrip
p5117
(dp5118
g4
S'Fluor Corp'
p5119
sg6
g5116
sg7
g8
(g12
S'\xbf\xad\xe9\x19\xcd-@\xc0'
p5120
tp5121
Rp5122
sg18
g8
(g12
S'\xd4\x1f\xe5\xe2\xc8\xee @'
p5123
tp5124
Rp5125
sg22
g8
(g12
S')\xa6NK\xc6~\x03\xc0'
p5126
tp5127
Rp5128
sg26
I-1
sg27
I1255889
sbsS'REGN'
p5129
(i__main__
Scrip
p5130
(dp5131
g4
S'Regeneron Pharmaceuticals'
p5132
sg6
g5129
sg7
g8
(g12
S'\xf3\xd6\x07\xfa\xb3\r\x06@'
p5133
tp5134
Rp5135
sg18
g8
(g12
S'\xe38\x8e\xe3x\xbc\xa4@'
p5136
tp5137
Rp5138
sg22
g8
(g12
S'\x9e\x94\x87\xccN\xd0\x95@'
p5139
tp5140
Rp5141
sg26
I-1
sg27
I1415854
sbsS'HD'
p5142
(i__main__
Scrip
p5143
(dp5144
g4
S'Home Depot'
p5145
sg6
g5142
sg7
g8
(g12
S'\xeea\x81\xf0\xfa\xa22@'
p5146
tp5147
Rp5148
sg18
g8
(g12
S'qM\x04rMDl@'
p5149
tp5150
Rp5151
sg22
g8
(g12
S'\xb9++A\xd1\xcds@'
p5152
tp5153
Rp5154
sg26
I-1
sg27
I8068591
sbsS'LLY'
p5155
(i__main__
Scrip
p5156
(dp5157
g4
S'Lilly (Eli)'
p5158
sg6
g5155
sg7
g8
(g12
S'\x1d\xe4!\xf8*\x9f#@'
p5159
tp5160
Rp5161
sg18
g8
(g12
S'\x87\xa7\x1b\xcbg\x8c\t@'
p5162
tp5163
Rp5164
sg22
g8
(g12
S'\xbb\xbe\xa3(\xe9\xd2\\@'
p5165
tp5166
Rp5167
sg26
I-1
sg27
I6289506
sbsS'TMK'
p5168
(i__main__
Scrip
p5169
(dp5170
g4
S'Torchmark Corp'
p5171
sg6
g5168
sg7
g8
(g12
S'\x93\x83l\xf2=w\x00\xc0'
p5172
tp5173
Rp5174
sg18
g8
(g12
S'\x8a\xe5\xbd\xda"\xd7\xe9\xbf'
p5175
tp5176
Rp5177
sg22
g8
(g12
S'\x1a(>\x12\xaec)@'
p5178
tp5179
Rp5180
sg26
I-1
sg27
I1165558
sbsS'INTC'
p5181
(i__main__
Scrip
p5182
(dp5183
g4
S'Intel Corp'
p5184
sg6
g5181
sg7
g8
(g12
S'\x86\x81\x8f\x84\xae\x8d+\xc0'
p5185
tp5186
Rp5187
sg18
g8
(g12
S',{\x1aa\xb9\xa7\xc1?'
p5188
tp5189
Rp5190
sg22
g8
(g12
S'\xccc+\x82\x86\x93H@'
p5191
tp5192
Rp5193
sg26
I-1
sg27
I26757965
sbsS'BRK.B'
p5194
(i__main__
Scrip
p5195
(dp5196
g4
S'Berkshire HathawayB'
p5197
sg6
g5194
sg7
g8
(g12
S'\x86\x81\x8f\x84\xae\x8d+\xc0'
p5198
tp5199
Rp5200
sg18
g8
(g12
S',{\x1aa\xb9\xa7\xc1?'
p5201
tp5202
Rp5203
sg22
g8
(g12
S'\xccc+\x82\x86\x93H@'
p5204
tp5205
Rp5206
sg26
I-1
sg27
I26757965
sbsS'SCG'
p5207
(i__main__
Scrip
p5208
(dp5209
g4
S'SCANA Corp'
p5210
sg6
g5207
sg7
g8
(g12
S'\xa5\x8b.\xba\xe8B-@'
p5211
tp5212
Rp5213
sg18
g8
(g12
S'G\xbf\x08\x97\xeb\xf4T@'
p5214
tp5215
Rp5216
sg22
g8
(g12
S'\xf4zg\xe8\xf5\xceS@'
p5217
tp5218
Rp5219
sg26
I-1
sg27
I2159150
sbsS'AME'
p5220
(i__main__
Scrip
p5221
(dp5222
g4
S'AMETEK, Inc'
p5223
sg6
g5220
sg7
g8
(g12
S'+\xf2HV\xf7\xaf)\xc0'
p5224
tp5225
Rp5226
sg18
g8
(g12
S'\xdd|6h\xcb\xa4"\xc0'
p5227
tp5228
Rp5229
sg22
g8
(g12
S')\xb2\x1a\xcfqe8@'
p5230
tp5231
Rp5232
sg26
I-1
sg27
I3448504
sbsS'LLL'
p5233
(i__main__
Scrip
p5234
(dp5235
g4
S'L-3 Communications Hldgs'
p5236
sg6
g5233
sg7
g8
(g12
S'\xdb\x8e}\xcbIT\x00\xc0'
p5237
tp5238
Rp5239
sg18
g8
(g12
S'J\x12l\xc4\xe5\x07\\@'
p5240
tp5241
Rp5242
sg22
g8
(g12
S'iV\x7f\xfd\x12\x9dA@'
p5243
tp5244
Rp5245
sg26
I-1
sg27
I766376
sbsS'ROP'
p5246
(i__main__
Scrip
p5247
(dp5248
g4
S'Roper Indus'
p5249
sg6
g5246
sg7
g8
(g12
S'\x03\xd4\xbdz\x87:\x10@'
p5250
tp5251
Rp5252
sg18
g8
(g12
S'6]\xd35]Sm@'
p5253
tp5254
Rp5255
sg22
g8
(g12
S'c\x00b<\xe9\xe9i@'
p5256
tp5257
Rp5258
sg26
I-1
sg27
I833831
sbsS'AMP'
p5259
(i__main__
Scrip
p5260
(dp5261
g4
S'Ameriprise Financial'
p5262
sg6
g5259
sg7
g8
(g12
S'\x97N8\xfc?*B\xc0'
p5263
tp5264
Rp5265
sg22
g8
(g12
S'\xa6,xUl\x04^@'
p5266
tp5267
Rp5268
sg26
I-1
sg27
I1841448
sbsS'TMO'
p5269
(i__main__
Scrip
p5270
(dp5271
g4
S'Thermo Fisher Scientific'
p5272
sg6
g5269
sg7
g8
(g12
S'\xd6\xc9\xe3\rW\x86\x0f@'
p5273
tp5274
Rp5275
sg18
g8
(g12
S'\xc6\x02~\xf2\xcd\x92u@'
p5276
tp5277
Rp5278
sg22
g8
(g12
S'\x99\xf1>\x81\x95\x14d@'
p5279
tp5280
Rp5281
sg26
I-1
sg27
I4163102
sbsS'AMT'
p5282
(i__main__
Scrip
p5283
(dp5284
g4
S'Amer Tower'
p5285
sg6
g5282
sg7
g8
(g12
S'\xd3A\xa2c*;&\xc0'
p5286
tp5287
Rp5288
sg18
g8
(g12
S'1\xcb\x91\x9f+\xc6\x85@'
p5289
tp5290
Rp5291
sg22
g8
(g12
S':\r2%\xf2$]@'
p5292
tp5293
Rp5294
sg26
I-1
sg27
I2036263
sbsS'LRCX'
p5295
(i__main__
Scrip
p5296
(dp5297
g4
S'Lam Research'
p5298
sg6
g5295
sg7
g8
(g12
S'v\xa3\xa9\xf3k\x0f)\xc0'
p5299
tp5300
Rp5301
sg18
g8
(g12
S'\xd9\x98*\x92\xfa\xa8f@'
p5302
tp5303
Rp5304
sg22
g8
(g12
S'{\xd0\xe3\xca+L[@'
p5305
tp5306
Rp5307
sg26
I-1
sg27
I2933013
sbsS'YHOO'
p5308
(i__main__
Scrip
p5309
(dp5310
g4
S'Yahoo Inc'
p5311
sg6
g5308
sg7
g8
(g12
S'3\x0e\xa6\xe7-\xb2E\xc0'
p5312
tp5313
Rp5314
sg18
g8
(g12
S'\xda\x90\xc5\xd6M\xf8C\xc0'
p5315
tp5316
Rp5317
sg22
g8
(g12
S'\\\x1a\x05"8vU@'
p5318
tp5319
Rp5320
sg26
I-1
sg27
I15250615
sbsS'PBI'
p5321
(i__main__
Scrip
p5322
(dp5323
g4
S'Pitney Bowes'
p5324
sg6
g5321
sg7
g8
(g12
S'Y~B\x9c\x95\xbf=\xc0'
p5325
tp5326
Rp5327
sg18
g8
(g12
S'\xc9G\xf7\x1dX=M\xc0'
p5328
tp5329
Rp5330
sg22
g8
(g12
S'\xc3\x90\x03ML\xa33\xc0'
p5331
tp5332
Rp5333
sg26
I-1
sg27
I2255454
sbsS'UPS'
p5334
(i__main__
Scrip
p5335
(dp5336
g4
S'United ParcelB'
p5337
sg6
g5334
sg7
g8
(g12
S'<\x04Mr~\x9f(\xc0'
p5338
tp5339
Rp5340
sg18
g8
(g12
S'\xbb\xbbjD\x13\xb7A@'
p5341
tp5342
Rp5343
sg22
g8
(g12
S'\xa1>\xa0e!\x00O@'
p5344
tp5345
Rp5346
sg26
I-1
sg27
I4231539
sbsS'TRV'
p5347
(i__main__
Scrip
p5348
(dp5349
g4
S'Travelers Cos'
p5350
sg6
g5347
sg7
g8
(g12
S'\x9b\x9f\xdd\xc40\xa2\t@'
p5351
tp5352
Rp5353
sg18
g8
(g12
S',\x99}\x02\xceFb@'
p5354
tp5355
Rp5356
sg22
g8
(g12
S'n\x02\x10\xcf\xeck[@'
p5357
tp5358
Rp5359
sg26
I-1
sg27
I2749807
sbsS'AVY'
p5360
(i__main__
Scrip
p5361
(dp5362
g4
S'Avery Dennison Corp'
p5363
sg6
g5360
sg7
g8
(g12
S'\xf0\xd9\xf2\xbe\x95k?@'
p5364
tp5365
Rp5366
sg18
g8
(g12
S'y\xd1\xe4\x89\xde\xc1\xff?'
p5367
tp5368
Rp5369
sg22
g8
(g12
S'\xf2o\x03$\xff6W@'
p5370
tp5371
Rp5372
sg26
I-1
sg27
I1046429
sbsS'SLM'
p5373
(i__main__
Scrip
p5374
(dp5375
g4
S'SLM Corp'
p5376
sg6
g5373
sg7
g8
(g12
S"\xf4\xd1\xc9G'\x1fB@"
p5377
tp5378
Rp5379
sg18
g8
(g12
S'\x10\xae\x12\xbc\xdfSR\xc0'
p5380
tp5381
Rp5382
sg22
g8
(g12
S'o\xfc\xd9\xbfS}3@'
p5383
tp5384
Rp5385
sg26
I-1
sg27
I34121495
sbsS'AVP'
p5386
(i__main__
Scrip
p5387
(dp5388
g4
S'Avon Products'
p5389
sg6
g5386
sg7
g8
(g12
S'\x885\xb2\xd9\xc0\xf8L\xc0'
p5390
tp5391
Rp5392
sg18
g8
(g12
S'\xfa\xd9\xf1_M\xdbU\xc0'
p5393
tp5394
Rp5395
sg22
g8
(g12
S'\xe0\xae\x97T\xe5?N\xc0'
p5396
tp5397
Rp5398
sg26
I-1
sg27
I9358882
sbsS'MDLZ'
p5399
(i__main__
Scrip
p5400
(dp5401
g4
S'Mondelez InternationalA'
p5402
sg6
g5399
sg7
g8
(g12
S'\x98\x81f\xb5\x86I\xf3\xbf'
p5403
tp5404
Rp5405
sg18
g8
(g12
S'J,\x15\xb1T\xc4*@'
p5406
tp5407
Rp5408
sg22
g8
(g12
S'\xe7\xb4\x8f\xca\x83w@@'
p5409
tp5410
Rp5411
sg26
I-1
sg27
I30301752
sbsS'IVZ'
p5412
(i__main__
Scrip
p5413
(dp5414
g4
S'INVESCO Ltd'
p5415
sg6
g5412
sg7
g8
(g12
S'Q\xe7>\xfe\xc9\xdc@\xc0'
p5416
tp5417
Rp5418
sg18
g8
(g12
S'}\x11\xf0\xa9@NP@'
p5419
tp5420
Rp5421
sg22
g8
(g12
S'\x92\x9c\xc57\xb9\xd5F@'
p5422
tp5423
Rp5424
sg26
I-1
sg27
I6467684
sbsS'NEM'
p5425
(i__main__
Scrip
p5426
(dp5427
g4
S'Newmont Mining'
p5428
sg6
g5425
sg7
g8
(g12
S'\x17\x0b\x08Y\xad\x1d@@'
p5429
tp5430
Rp5431
sg18
g8
(g12
S'1\xdc\x01\xd8[IF\xc0'
p5432
tp5433
Rp5434
sg22
g8
(g12
S'\xb1\xed\xd7\xe9fdG\xc0'
p5435
tp5436
Rp5437
sg26
I-1
sg27
I16819650
sbsS'FOSL'
p5438
(i__main__
Scrip
p5439
(dp5440
g4
S'Fossil Group'
p5441
sg6
g5438
sg7
g8
(g12
S'P\xaa\xfe:\x9d\rP\xc0'
p5442
tp5443
Rp5444
sg18
g8
(g12
S'\xbd\x86\xf2\x1a\xcak4@'
p5445
tp5446
Rp5447
sg22
g8
(g12
S'\x15\x81Cg\x9f\x18\xf9?'
p5448
tp5449
Rp5450
sg26
I-1
sg27
I2674860
sbsS'ACE'
p5451
(i__main__
Scrip
p5452
(dp5453
g4
S'ACE Limited'
p5454
sg6
g5451
sg7
g8
(g12
S'3\xf9\xe8\xe4\xa3\x93\x13@'
p5455
tp5456
Rp5457
sg18
g8
(g12
S'\xb3\xd9\xce\xb2\xff0d@'
p5458
tp5459
Rp5460
sg22
g8
(g12
S'\xa52_\x07\xef?`@'
p5461
tp5462
Rp5463
sg26
I-1
sg27
I13089138
sbsS'NEE'
p5464
(i__main__
Scrip
p5465
(dp5466
g4
S'NextEra Energy'
p5467
sg6
g5464
sg7
g8
(g12
S'\x1c\xb0\xa7\x175-&@'
p5468
tp5469
Rp5470
sg18
g8
(g12
S'\xcfY\xca\x83\xd2!R@'
p5471
tp5472
Rp5473
sg22
g8
(g12
S'B1rq\xd8\x12a@'
p5474
tp5475
Rp5476
sg26
I-1
sg27
I2741510
sbsS'ACN'
p5477
(i__main__
Scrip
p5478
(dp5479
g4
S'Accenture PlcA'
p5480
sg6
g5477
sg7
g8
(g12
S'n\x8c\x06\xb6\x1d51@'
p5481
tp5482
Rp5483
sg18
g8
(g12
S'oz\xd3\x9b\xde\xa4t@'
p5484
tp5485
Rp5486
sg22
g8
(g12
S'\xb1\x13;\xb1\x13=a@'
p5487
tp5488
Rp5489
sg26
I-1
sg27
I3880496
sbsS'NI'
p5490
(i__main__
Scrip
p5491
(dp5492
g4
S'NiSource Inc'
p5493
sg6
g5490
sg7
g8
(g12
S'\xe1\x9c\xe1s]KI\xc0'
p5494
tp5495
Rp5496
sg18
g8
(g12
S'\xc9,j\x165\x8b\n\xc0'
p5497
tp5498
Rp5499
sg22
g8
(g12
S'\xe8\x05\xb1\xa3N&C@'
p5500
tp5501
Rp5502
sg26
I-1
sg27
I3756175
sbsS'TEL'
p5503
(i__main__
Scrip
p5504
(dp5505
g4
S'TE Connectivity'
p5506
sg6
g5503
sg7
g8
(g12
S'\xc6\xe0|\x0c\xce\xc7(\xc0'
p5507
tp5508
Rp5509
sg22
g8
(g12
S'^0M\xb6Dy[@'
p5510
tp5511
Rp5512
sg26
I-1
sg27
I3642747
sbsS'NBR'
p5513
(i__main__
Scrip
p5514
(dp5515
g4
S'Nabors Indus'
p5516
sg6
g5513
sg7
g8
(g12
S'Y\x0b\x05tl>5\xc0'
p5517
tp5518
Rp5519
sg18
g8
(g12
S'\xb3\xcc\xa6\x99,\xf3P\xc0'
p5520
tp5521
Rp5522
sg22
g8
(g12
S'D\x17]t\xd1E0@'
p5523
tp5524
Rp5525
sg26
I-1
sg27
I6996779
sbsS'RRC'
p5526
(i__main__
Scrip
p5527
(dp5528
g4
S'Range Resources'
p5529
sg6
g5526
sg7
g8
(g12
S'b7\xdbW\xa2\xe3L\xc0'
p5530
tp5531
Rp5532
sg18
g8
(g12
S'\xc8\xe5\xce~f\x11g@'
p5533
tp5534
Rp5535
sg22
g8
(g12
S'\x02T\x8b\x97\x00\xe1A\xc0'
p5536
tp5537
Rp5538
sg26
I-1
sg27
I7105650
sbsS'FAST'
p5539
(i__main__
Scrip
p5540
(dp5541
g4
S'Fastenal Co'
p5542
sg6
g5539
sg7
g8
(g12
S'\xa3\xe5\x8b\xf8\xa1\xe7\x08\xc0'
p5543
tp5544
Rp5545
sg18
g8
(g12
S'\x1b\x1e\xbcW$\xa3#\xc0'
p5546
tp5547
Rp5548
sg22
g8
(g12
S'\xf0d\xe1\x99<2\x08@'
p5549
tp5550
Rp5551
sg26
I-1
sg27
I4775441
sbsS'TEG'
p5552
(i__main__
Scrip
p5553
(dp5554
g4
S'Integrys Energy Group'
p5555
sg6
g5552
sg7
g8
(g12
S'\\H\x8b\xe5\x11\xa11@'
p5556
tp5557
Rp5558
sg18
g8
(g12
S'\x0e<\xf0\xc0\x03\x8fQ@'
p5559
tp5560
Rp5561
sg22
g8
(g12
S'\x15\xe1x$w\ta@'
p5562
tp5563
Rp5564
sg26
I-1
sg27
I3412306
sbsS'NBL'
p5565
(i__main__
Scrip
p5566
(dp5567
g4
S'Noble Energy'
p5568
sg6
g5565
sg7
g8
(g12
S'\xc1p\xba\xfc\x02\xe7F\xc0'
p5569
tp5570
Rp5571
sg18
g8
(g12
S'(R\xed\x9c\xc4\x8dA\xc0'
p5572
tp5573
Rp5574
sg22
g8
(g12
S'\x93=\x9dB\x04\xe1M\xc0'
p5575
tp5576
Rp5577
sg26
I-1
sg27
I8880393
sbsS'TER'
p5578
(i__main__
Scrip
p5579
(dp5580
g4
S'Teradyne Inc'
p5581
sg6
g5578
sg7
g8
(g12
S'\xf1\x9ce\xcd\xaa\x0b\x06\xc0'
p5582
tp5583
Rp5584
sg18
g8
(g12
S'\\\x9e\xa6\xc7K\\>\xc0'
p5585
tp5586
Rp5587
sg22
g8
(g12
S'Dc}h\xac\xcfU@'
p5588
tp5589
Rp5590
sg26
I-1
sg27
I2200383
sbsS'NU'
p5591
(i__main__
Scrip
p5592
(dp5593
g4
S'Northeast Utilities'
p5594
sg6
g5591
sg7
g8
(g12
S'\xfc\x08\xee#\xb8\x8f8@'
p5595
tp5596
Rp5597
sg18
g8
(g12
S'\xae\xad\xc01\xeb\xf4p@'
p5598
tp5599
Rp5600
sg22
g8
(g12
S'Tv.\xb2\xc7\xdb`@'
p5601
tp5602
Rp5603
sg26
I-1
sg27
I2161938
sbsS'ADT'
p5604
(i__main__
Scrip
p5605
(dp5606
g6
g5604
sg27
I4854058
sg7
g8
(g12
S'\xa9s?b\xa0!4\xc0'
p5607
tp5608
Rp5609
sg4
S'ADT Corp (The)'
p5610
sg26
I-1
sbsS'LLTC'
p5611
(i__main__
Scrip
p5612
(dp5613
g4
S'Linear Technology Corp'
p5614
sg6
g5611
sg7
g8
(g12
S'\xa5\x12\x17\xb3U\xe2\x12\xc0'
p5615
tp5616
Rp5617
sg18
g8
(g12
S'\xfe\x01Q\xefQ\xce\xeb\xbf'
p5618
tp5619
Rp5620
sg22
g8
(g12
S'WI\x9c"\xe5\xa5L@'
p5621
tp5622
Rp5623
sg26
I-1
sg27
I3243592
sbsS'ADP'
p5624
(i__main__
Scrip
p5625
(dp5626
g4
S'Automatic Data Proc'
p5627
sg6
g5624
sg7
g8
(g12
S'\xdd\x06\xfa\xf0\xc2\xbb\x10\xc0'
p5628
tp5629
Rp5630
sg18
g8
(g12
S'\x9c\xadC\xbf\xd9\xbaU@'
p5631
tp5632
Rp5633
sg22
g8
(g12
S'\xd0t\x07\xfb\xadVX@'
p5634
tp5635
Rp5636
sg26
I-1
sg27
I2176066
sbsS'DNB'
p5637
(i__main__
Scrip
p5638
(dp5639
g4
S'Dun & Bradstreet'
p5640
sg6
g5637
sg7
g8
(g12
S'G\x89\x9fQ\xe2\xe79\xc0'
p5641
tp5642
Rp5643
sg18
g8
(g12
S'\xf4\xb6p5C\xe0Q@'
p5644
tp5645
Rp5646
sg22
g8
(g12
S'ya\xdd\x15(\xf4@@'
p5647
tp5648
Rp5649
sg26
I-1
sg27
I211334
sbsS'GILD'
p5650
(i__main__
Scrip
p5651
(dp5652
g4
S'Gilead Sciences'
p5653
sg6
g5650
sg7
g8
(g12
S'\x08ON=\x00[4\xc0'
p5654
tp5655
Rp5656
sg18
g8
(g12
S'\xc4\xfa\x88\x8a#bL@'
p5657
tp5658
Rp5659
sg22
g8
(g12
S'\x82Kl%\x83\xe4T@'
p5660
tp5661
Rp5662
sg26
I-1
sg27
I15426116
sbsS'GME'
p5663
(i__main__
Scrip
p5664
(dp5665
g4
S'GameStop CorpA'
p5666
sg6
g5663
sg7
g8
(g12
S'\xae;\\\xd4\xd3\x18C\xc0'
p5667
tp5668
Rp5669
sg18
g8
(g12
S'p\x1c\xc7q\x1c\x87H@'
p5670
tp5671
Rp5672
sg22
g8
(g12
S'\x1b!\xb6i\xc5\xbd@@'
p5673
tp5674
Rp5675
sg26
I-1
sg27
I1543292
sbsS'RDC'
p5676
(i__main__
Scrip
p5677
(dp5678
g4
S'Rowan Cos Plc'
p5679
sg6
g5676
sg7
g8
(g12
S'\x01\xc8\xcdA\xc4h:\xc0'
p5680
tp5681
Rp5682
sg18
g8
(g12
S'V\\\x84\x8a\xc6\xcf>@'
p5683
tp5684
Rp5685
sg22
g8
(g12
S'*\x0e\\V\xb1\x80L@'
p5686
tp5687
Rp5688
sg26
I-1
sg27
I4584627
sbsS'SJM'
p5689
(i__main__
Scrip
p5690
(dp5691
g4
S'Smucker (J.M.)'
p5692
sg6
g5689
sg7
g8
(g12
S'\xd6\xf9z\x8f\xb9\xfe8@'
p5693
tp5694
Rp5695
sg18
g8
(g12
S'b\xcd\x10#\xf0wc@'
p5696
tp5697
Rp5698
sg22
g8
(g12
S'\x94\x12=\xb4\xf4\xb2Y@'
p5699
tp5700
Rp5701
sg26
I-1
sg27
I586111
sbsS'JPM'
p5702
(i__main__
Scrip
p5703
(dp5704
g4
S'JPMorgan Chase & Co'
p5705
sg6
g5702
sg7
g8
(g12
S"\xce\x8a{'Y\xea\x10\xc0"
p5706
tp5707
Rp5708
sg18
g8
(g12
S'\x13\xc3\xb4\xdc\xb7>A@'
p5709
tp5710
Rp5711
sg22
g8
(g12
S'\x02\x05\xf0\xa2x\xafD@'
p5712
tp5713
Rp5714
sg26
I-1
sg27
I21878497
sbsS'ADM'
p5715
(i__main__
Scrip
p5716
(dp5717
g4
S'Archer-Daniels-Midland'
p5718
sg6
g5715
sg7
g8
(g12
S'i\x06\xaf{2h@\xc0'
p5719
tp5720
Rp5721
sg18
g8
(g12
S'\xcf\xd9?\x89\xc2\xa2X@'
p5722
tp5723
Rp5724
sg22
g8
(g12
S'1ma\xbc\x12\xae*@'
p5725
tp5726
Rp5727
sg26
I-1
sg27
I5402817
sbsS'ADI'
p5728
(i__main__
Scrip
p5729
(dp5730
g4
S'Analog Devices'
p5731
sg6
g5728
sg7
g8
(g12
S'Y\x15@d\xe0\xb2\xeb\xbf'
p5732
tp5733
Rp5734
sg18
g8
(g12
S'\xf2\x9b\x82\xe5\xe4\xae\xde\xbf'
p5735
tp5736
Rp5737
sg22
g8
(g12
S'\x17\x1e\xa7\xbf\x92\x0bT@'
p5738
tp5739
Rp5740
sg26
I-1
sg27
I2434039
sbsS'VIAB'
p5741
(i__main__
Scrip
p5742
(dp5743
g4
S'Viacom IncB'
p5744
sg6
g5741
sg7
g8
(g12
S'\xf5\xdbJ\xb3\xc6\xc5B\xc0'
p5745
tp5746
Rp5747
sg22
g8
(g12
S'\x8d\xfa\xfdvv<H@'
p5748
tp5749
Rp5750
sg26
I-1
sg27
I4433068
sbsS'LEG'
p5751
(i__main__
Scrip
p5752
(dp5753
g4
S'Leggett & Platt'
p5754
sg6
g5751
sg7
g8
(g12
S'\x0cI%\xd9;\x11\xc9\xbf'
p5755
tp5756
Rp5757
sg18
g8
(g12
S'\xd3\xd2\xd2\xd2\xd2\xa2P@'
p5758
tp5759
Rp5760
sg22
g8
(g12
S'A\x06\xe7cp>^@'
p5761
tp5762
Rp5763
sg26
I-1
sg27
I935779
sbsS'XEL'
p5764
(i__main__
Scrip
p5765
(dp5766
g4
S'Xcel Energy'
p5767
sg6
g5764
sg7
g8
(g12
S'1_\x8b\xdc@?2@'
p5768
tp5769
Rp5770
sg18
g8
(g12
S'\x8b&\x83\xdb\x82\x91_@'
p5771
tp5772
Rp5773
sg22
g8
(g12
S'\xb8\x9d\xd6g\xcd\xb4W@'
p5774
tp5775
Rp5776
sg26
I-1
sg27
I5079260
sbsS'WIN'
p5777
(i__main__
Scrip
p5778
(dp5779
g4
S'Windstream Holdings'
p5780
sg6
g5777
sg7
g8
(g12
S'\xbb\x03\xaacom\xe8?'
p5781
tp5782
Rp5783
sg22
g8
(g12
S'\x1eoe\x9fCj\x1a\xc0'
p5784
tp5785
Rp5786
sg26
I-1
sg27
I16699282
sbsS'MHFI'
p5787
(i__main__
Scrip
p5788
(dp5789
g4
S'McGraw Hill Financial'
p5790
sg6
g5787
sg7
g8
(g12
S'\x87J/\xe8\xfd\xfd\x14\xc0'
p5791
tp5792
Rp5793
sg18
g8
(g12
S"gX\x12n\x94z'@"
p5794
tp5795
Rp5796
sg22
g8
(g12
S'\xa8o\x99D\xa3\xb0b@'
p5797
tp5798
Rp5799
sg26
I-1
sg27
I3064426
sbsS'LEN'
p5800
(i__main__
Scrip
p5801
(dp5802
g4
S'Lennar CorpA'
p5803
sg6
g5800
sg7
g8
(g12
S'\xa7\xcfL9\xc3\xd9*\xc0'
p5804
tp5805
Rp5806
sg18
g8
(g12
S'\xcd\xdd\x85\xe6\x8bt+\xc0'
p5807
tp5808
Rp5809
sg22
g8
(g12
S'\x95\x9b\xfe\xf7Q\x17e@'
p5810
tp5811
Rp5812
sg26
I-1
sg27
I3018640
sbsS'EBAY'
p5813
(i__main__
Scrip
p5814
(dp5815
g4
S'eBay Inc'
p5816
sg6
g5813
sg7
g8
(g12
S'\xa6\xd2?\xab\x05\x98L\xc0'
p5817
tp5818
Rp5819
sg18
g8
(g12
S'e\xe5Q\x9c\n\x89P\xc0'
p5820
tp5821
Rp5822
sg22
g8
(g12
S"?\x0b'\xa8E\xa3\xe0?"
p5823
tp5824
Rp5825
sg26
I-1
sg27
I18488265
sbsS'MET'
p5826
(i__main__
Scrip
p5827
(dp5828
g4
S'MetLife Inc'
p5829
sg6
g5826
sg7
g8
(g12
S'\xd77\x86\xec\xb0\xda<\xc0'
p5830
tp5831
Rp5832
sg18
g8
(g12
S"?=\xc0Y\t='@"
p5833
tp5834
Rp5835
sg22
g8
(g12
S'P\xdd\xe1J\xba\xbc.@'
p5836
tp5837
Rp5838
sg26
I-1
sg27
I12416315
sbsS'TWC'
p5839
(i__main__
Scrip
p5840
(dp5841
g4
S'Time Warner Cable'
p5842
sg6
g5839
sg7
g8
(g12
S'\xb2G~#zQ5@'
p5843
tp5844
Rp5845
sg22
g8
(g12
S'\xd6\x02g\x88\x93\xecq@'
p5846
tp5847
Rp5848
sg26
I-1
sg27
I2110479
sbsS'USB'
p5849
(i__main__
Scrip
p5850
(dp5851
g4
S'U.S. Bancorp'
p5852
sg6
g5849
sg7
g8
(g12
S'\x96C\xc5\x82\xe6P!\xc0'
p5853
tp5854
Rp5855
sg18
g8
(g12
S'\x95\xc2\x80\xa0\x93\x03D@'
p5856
tp5857
Rp5858
sg22
g8
(g12
S'\xf9\x80\xcf\x11e\x01Q@'
p5859
tp5860
Rp5861
sg26
I-1
sg27
I10179225
sbsS'AZO'
p5862
(i__main__
Scrip
p5863
(dp5864
g4
S'AutoZone Inc'
p5865
sg6
g5862
sg7
g8
(g12
S'\xef\xe3Ao\xdd\xdf;@'
p5866
tp5867
Rp5868
sg18
g8
(g12
S'\xef\xc1\x1d\xb6\xb6\t\x86@'
p5869
tp5870
Rp5871
sg22
g8
(g12
S'\xa6\xe7\x9a[\xc4\x01w@'
p5872
tp5873
Rp5874
sg26
I-1
sg27
I627883
sbsS'MSI'
p5875
(i__main__
Scrip
p5876
(dp5877
g4
S'Motorola Solutions'
p5878
sg6
g5875
sg7
g8
(g12
S'EI\x9d\xc7\xae\xb7\x10\xc0'
p5879
tp5880
Rp5881
sg18
g8
(g12
S'E\x05l\xa6\xd32p@'
p5882
tp5883
Rp5884
sg22
g8
(g12
S';Fq\xaec\xd4\x89@'
p5885
tp5886
Rp5887
sg26
I-1
sg27
I1079216
sbsS'TWX'
p5888
(i__main__
Scrip
p5889
(dp5890
g4
S'Time Warner'
p5891
sg6
g5888
sg7
g8
(g12
S'h\xcd?j\xa7\xef%\xc0'
p5892
tp5893
Rp5894
sg18
g8
(g12
S'\xd3\xd2\xd2\xd2\xd22r@'
p5895
tp5896
Rp5897
sg22
g8
(g12
S'\xecsHM0\xdeb@'
p5898
tp5899
Rp5900
sg26
I-1
sg27
I6684790
sbsS'PCAR'
p5901
(i__main__
Scrip
p5902
(dp5903
g4
S'PACCAR Inc'
p5904
sg6
g5901
sg7
g8
(g12
S"'\x04\x9boU\xab8\xc0"
p5905
tp5906
Rp5907
sg18
g8
(g12
S'\x9cO\xad9\x1aQ!\xc0'
p5908
tp5909
Rp5910
sg22
g8
(g12
S'\xb9\xff6R\xb2]C@'
p5911
tp5912
Rp5913
sg26
I-1
sg27
I2777549
sbsS'TXN'
p5914
(i__main__
Scrip
p5915
(dp5916
g4
S'Texas Instruments'
p5917
sg6
g5914
sg7
g8
(g12
S'\xac3\x054\x08R\x04\xc0'
p5918
tp5919
Rp5920
sg18
g8
(g12
S'\xda9Pr\x18\xeeP@'
p5921
tp5922
Rp5923
sg22
g8
(g12
S'X\xdc?\x9b\xc7I]@'
p5924
tp5925
Rp5926
sg26
I-1
sg27
I7721479
sbsS'PETM'
p5927
(i__main__
Scrip
p5928
(dp5929
g4
S'PETsMART Inc'
p5930
sg6
g5927
sg7
g8
(g12
S'\xcdRG\x88mZ-@'
p5931
tp5932
Rp5933
sg18
g8
(g12
S'Y\xeei\x84\xe5\xbe\x80@'
p5934
tp5935
Rp5936
sg22
g8
(g12
S'~\x9ch\xb9~wv@'
p5937
tp5938
Rp5939
sg26
I-1
sg27
I11623204
sbsS'HES'
p5940
(i__main__
Scrip
p5941
(dp5942
g4
S'Hess Corp'
p5943
sg6
g5940
sg7
g8
(g12
S'\xa5#\xc5\x92WQK\xc0'
p5944
tp5945
Rp5946
sg18
g8
(g12
S'y;~\x8fR\x1dC\xc0'
p5947
tp5948
Rp5949
sg22
g8
(g12
S'\xd7\xdaO\xe9\xd6\xd5@\xc0'
p5950
tp5951
Rp5952
sg26
I-1
sg27
I40159264
sbsS'ORCL'
p5953
(i__main__
Scrip
p5954
(dp5955
g4
S'Oracle Corp'
p5956
sg6
g5953
sg7
g8
(g12
S'f\xf2\xf6\xf9\xfb\xa7(\xc0'
p5957
tp5958
Rp5959
sg18
g8
(g12
S'\xcd\x89\xba\x9b\x9a\x0cd@'
p5960
tp5961
Rp5962
sg22
g8
(g12
S'\xbd\xa2\xe5!B=K@'
p5963
tp5964
Rp5965
sg26
I-1
sg27
I17186298
sbsS'TXT'
p5966
(i__main__
Scrip
p5967
(dp5968
g4
S'Textron, Inc'
p5969
sg6
g5966
sg7
g8
(g12
S'd\xf2\xdf~zB7\xc0'
p5970
tp5971
Rp5972
sg18
g8
(g12
S'Fz\x01\x8c\x91\xdeD\xc0'
p5973
tp5974
Rp5975
sg22
g8
(g12
S'\xb7R\x12\xd5\x81HP@'
p5976
tp5977
Rp5978
sg26
I-1
sg27
I2414459
sbsS'PXD'
p5979
(i__main__
Scrip
p5980
(dp5981
g4
S'Pioneer Natural Resources'
p5982
sg6
g5979
sg7
g8
(g12
S'\xdf\x003P\xbc\xdf>\xc0'
p5983
tp5984
Rp5985
sg18
g8
(g12
S'\xc2\xc3\xc3\xc3\xc3\x03r@'
p5986
tp5987
Rp5988
sg22
g8
(g12
S'm\x081\xc0\x8c>c@'
p5989
tp5990
Rp5991
sg26
I-1
sg27
I3504027
sbsS'EIX'
p5992
(i__main__
Scrip
p5993
(dp5994
g4
S'Edison Intl'
p5995
sg6
g5992
sg7
g8
(g12
S'\xda\xf8j\x9e\x94\x1c\xee?'
p5996
tp5997
Rp5998
sg18
g8
(g12
S'\x8f!\x92B\x8d\xf3d@'
p5999
tp6000
Rp6001
sg22
g8
(g12
S'90.\xdc\xd7\x8cW@'
p6002
tp6003
Rp6004
sg26
I-1
sg27
I2466469
sbsS'ESV'
p6005
(i__main__
Scrip
p6006
(dp6007
g4
S'ENSCO Plc ClA'
p6008
sg6
g6005
sg7
g8
(g12
S'l\xe1\x10\xa47\xc1R\xc0'
p6009
tp6010
Rp6011
sg18
g8
(g12
S'\xd8\xfen\x8acuP\xc0'
p6012
tp6013
Rp6014
sg22
g8
(g12
S'\x17\x83\x8apK\rS\xc0'
p6015
tp6016
Rp6017
sg26
I-1
sg27
I11201879
sbsS'PKI'
p6018
(i__main__
Scrip
p6019
(dp6020
g4
S'PerkinElmer Inc'
p6021
sg6
g6018
sg7
g8
(g12
S'\xbb\xba\xa6a.\x8d\xfa\xbf'
p6022
tp6023
Rp6024
sg18
g8
(g12
S'G\x87&\xf9\x17\xacZ@'
p6025
tp6026
Rp6027
sg22
g8
(g12
S'\xce\x0b\xd0\x92\xfb\xf1Z@'
p6028
tp6029
Rp6030
sg26
I-1
sg27
I3341069
sbsS'CNP'
p6031
(i__main__
Scrip
p6032
(dp6033
g4
S'CenterPoint Energy'
p6034
sg6
g6031
sg7
g8
(g12
S'\xe3~+\xc7B\x136\xc0'
p6035
tp6036
Rp6037
sg18
g8
(g12
S'k\x97h\x97h\xd7T@'
p6038
tp6039
Rp6040
sg22
g8
(g12
S'WUUUU\xb5A@'
p6041
tp6042
Rp6043
sg26
I-1
sg27
I6002117
sbsS'HON'
p6044
(i__main__
Scrip
p6045
(dp6046
g4
S'Honeywell Intl'
p6047
sg6
g6044
sg7
g8
(g12
S'\x07\xa8\xb3Hy\x1c\x15@'
p6048
tp6049
Rp6050
sg18
g8
(g12
S'!\x8a\xfb\xd0\xee\xf6g@'
p6051
tp6052
Rp6053
sg22
g8
(g12
S'\x14\xabh,\x12\x92e@'
p6054
tp6055
Rp6056
sg26
I-1
sg27
I3642428
sbsS'CNX'
p6057
(i__main__
Scrip
p6058
(dp6059
g4
S'CONSOL Energy'
p6060
sg6
g6057
sg7
g8
(g12
S'\xbd\xeb\x14\x05\x95"S\xc0'
p6061
tp6062
Rp6063
sg18
g8
(g12
S'j-\xb3#\xaa\xebM\xc0'
p6064
tp6065
Rp6066
sg22
g8
(g12
S'\x8a\x90\xb8\xa8I\x0fT\xc0'
p6067
tp6068
Rp6069
sg26
I-1
sg27
I11562466
sbsS'AN'
p6070
(i__main__
Scrip
p6071
(dp6072
g4
S'AutoNation Inc'
p6073
sg6
g6070
sg7
g8
(g12
S'.\xbcF\xd3\x88\xf14\xc0'
p6074
tp6075
Rp6076
sg18
g8
(g12
S'\xafD\xedJ\xd4^f@'
p6077
tp6078
Rp6079
sg22
g8
(g12
S'\xba\xe8\xa2\x8b.\xfec@'
p6080
tp6081
Rp6082
sg26
I-1
sg27
I3253633
sbsS'ABBV'
p6083
(i__main__
Scrip
p6084
(dp6085
g6
g6083
sg27
I13122676
sg7
g8
(g12
S'\xf9X\xa7#\x05\xb00\xc0'
p6086
tp6087
Rp6088
sg4
S'AbbVie Inc'
p6089
sg26
I-1
sbsS'HOT'
p6090
(i__main__
Scrip
p6091
(dp6092
g4
S'Starwood Hotels&Res World'
p6093
sg6
g6090
sg7
g8
(g12
S'\x15y\x95\xf5\x12\xb15\xc0'
p6094
tp6095
Rp6096
sg18
g8
(g12
S'\xd6C\x80\x1aZ\xf2L@'
p6097
tp6098
Rp6099
sg22
g8
(g12
S'&%\xc0\xdd\x92;R@'
p6100
tp6101
Rp6102
sg26
I-1
sg27
I1559643
sbsS'ROK'
p6103
(i__main__
Scrip
p6104
(dp6105
g4
S'Rockwell Automation'
p6106
sg6
g6103
sg7
g8
(g12
S'\xeb8}\x13^5(\xc0'
p6107
tp6108
Rp6109
sg18
g8
(g12
S'\xca\t\xc2\xdd\xd8\xd7j@'
p6110
tp6111
Rp6112
sg22
g8
(g12
S'f\xec\xda\xca\x190Y@'
p6113
tp6114
Rp6115
sg26
I-1
sg27
I2323743
sbsS'TROW'
p6116
(i__main__
Scrip
p6117
(dp6118
g4
S'T.Rowe Price Group'
p6119
sg6
g6116
sg7
g8
(g12
S'v\xac!\xc2ax1\xc0'
p6120
tp6121
Rp6122
sg18
g8
(g12
S'\xa6"\x96\x8aX*@@'
p6123
tp6124
Rp6125
sg22
g8
(g12
S'\x13;\xb1\x13;\xb1A@'
p6126
tp6127
Rp6128
sg26
I-1
sg27
I2608344
sbsS'ISRG'
p6129
(i__main__
Scrip
p6130
(dp6131
g4
S'Intuitive Surgical'
p6132
sg6
g6129
sg7
g8
(g12
S'\xc6%\x96e\x008\x0f@'
p6133
tp6134
Rp6135
sg18
g8
(g12
S'T\xde"\x91\x9b\x9a\xa7@'
p6136
tp6137
Rp6138
sg22
g8
(g12
S' 46\x8e\x7f2P@'
p6139
tp6140
Rp6141
sg26
I-1
sg27
I639670
sbsS'PFE'
p6142
(i__main__
Scrip
p6143
(dp6144
g4
S'Pfizer, Inc'
p6145
sg6
g6142
sg7
g8
(g12
S'\xd2\xbflm\xba\x04\x11\xc0'
p6146
tp6147
Rp6148
sg18
g8
(g12
S'$h\xe6m\x82f6\xc0'
p6149
tp6150
Rp6151
sg22
g8
(g12
S'\x14\xbf\xb9\x03\x19qI@'
p6152
tp6153
Rp6154
sg26
I-1
sg27
I38774934
sbsS'NKE'
p6155
(i__main__
Scrip
p6156
(dp6157
g4
S'NIKE, IncB'
p6158
sg6
g6155
sg7
g8
(g12
S'\x0e\x9f\x99\x8a\xd9BD\xc0'
p6159
tp6160
Rp6161
sg18
g8
(g12
S'\x17[\xfb\xbeq84\xc0'
p6162
tp6163
Rp6164
sg22
g8
(g12
S'\xef\x1e\x92((\xb2\x1f\xc0'
p6165
tp6166
Rp6167
sg26
I-1
sg27
I14365886
sbsS'PFG'
p6168
(i__main__
Scrip
p6169
(dp6170
g4
S'Principal Financial Grp'
p6171
sg6
g6168
sg7
g8
(g12
S'\x9f\x08E(B\x11?\xc0'
p6172
tp6173
Rp6174
sg18
g8
(g12
S'\x08\xf4~V\xbc.\xd3?'
p6175
tp6176
Rp6177
sg22
g8
(g12
S'Z\xe6\xf2\xb7s|L@'
p6178
tp6179
Rp6180
sg26
I-1
sg27
I3170487
sbsS'TSS'
p6181
(i__main__
Scrip
p6182
(dp6183
g4
S'Total System Svcs'
p6184
sg6
g6181
sg7
g8
(g12
S'\x1e-&\xcd\xd5[.@'
p6185
tp6186
Rp6187
sg18
g8
(g12
S'\xc3\xb6w\x97\xc5\xf7R@'
p6188
tp6189
Rp6190
sg22
g8
(g12
S'\x88 \xe5\xa6\xa2\te@'
p6191
tp6192
Rp6193
sg26
I-1
sg27
I2895270
sbs.