(dp0
S'UTX'
p1
(i__main__
Scrip
p2
(dp3
S'name'
p4
S'United Technologies Corp'
p5
sS'symbol'
p6
g1
sS'short_term_gain'
p7
cnumpy.core.multiarray
scalar
p8
(cnumpy
dtype
p9
(S'f8'
p10
I0
I1
tp11
Rp12
(I3
S'<'
p13
NNNI-1
I-1
I0
tp14
bS'\x13\xda\xf9\xd9S\xd73\xc0'
p15
tp16
Rp17
sS'long_term_gain'
p18
g8
(g12
S'\x0fs\x1dt\xd8\xbb%\xc0'
p19
tp20
Rp21
sS'mid_term_gain'
p22
g8
(g12
S'=\x82y\xf1\xb5\x8f;@'
p23
tp24
Rp25
sS'buzz'
p26
Vpositive
p27
sS'turnover'
p28
I-1
sS'buzz_factor'
p29
V0.0622974
p30
sS'quantity'
p31
I6848010
sbsS'AXP'
p32
(i__main__
Scrip
p33
(dp34
g4
S'American Express Inc.'
p35
sg6
g32
sg7
g8
(g12
S'\x93|\x8e\x0e\xb8YE\xc0'
p36
tp37
Rp38
sg18
g8
(g12
S'\xf45\xf0\x0b\xacw\xf7\xbf'
p39
tp40
Rp41
sg22
g8
(g12
S'Z\x0c\xf9\xb6\x19\x13C@'
p42
tp43
Rp44
sg26
Vnegative
p45
sg28
I-1
sg29
V-0.0325098
p46
sg31
I11815816
sbsS'BA'
p47
(i__main__
Scrip
p48
(dp49
g4
S'Boeing Co.'
p50
sg6
g47
sg7
g8
(g12
S'\xd5\xbf\xfd\xcc\x1c2\x1c\xc0'
p51
tp52
Rp53
sg18
g8
(g12
S'\x04\xdf\x84\x84k\xbce@'
p54
tp55
Rp56
sg22
g8
(g12
S'J\x93&M\x9a$Z@'
p57
tp58
Rp59
sg26
Vnegative
p60
sg28
I-1
sg29
V-0.537164
p61
sg31
I6437693
sbsS'AAPL'
p62
(i__main__
Scrip
p63
(dp64
g4
S'Apple Inc.'
p65
sg6
g62
sg7
g8
(g12
S'\x01o\x0f\x07\xd8\x1c4\xc0'
p66
tp67
Rp68
sg18
g8
(g12
S'?\xee\xbb\xa5\xd0gn@'
p69
tp70
Rp71
sg22
g8
(g12
S'D\xc8qB=SJ\xc0'
p72
tp73
Rp74
sg26
Vnegative
p75
sg28
I-1
sg29
V-0.264504
p76
sg31
I53689273
sbsS'BK'
p77
(i__main__
Scrip
p78
(dp79
g4
S'Bank of New York'
p80
sg6
g77
sg7
g8
(g12
S'\xf7\x883\xd0\x9040\xc0'
p81
tp82
Rp83
sg18
g8
(g12
S'\xc9\x1avW\x87l\x0e@'
p84
tp85
Rp86
sg22
g8
(g12
S'\xacY\xa4\xe8\xd0\x056@'
p87
tp88
Rp89
sg26
Vpositive
p90
sg28
I-1
sg29
V0.0635944
p91
sg31
I9427675
sbsS'AMZN'
p92
(i__main__
Scrip
p93
(dp94
g4
S'Amazon.com'
p95
sg6
g92
sg7
g8
(g12
S'\xbc\xee\x9d\x80CrH@'
p96
tp97
Rp98
sg18
g8
(g12
S'\x95\xfd\xb4\xeaku\x90@'
p99
tp100
Rp101
sg22
g8
(g12
S'\xcf#\xca\x9d\x95\xdcs@'
p102
tp103
Rp104
sg26
Vnegative
p105
sg28
I-1
sg29
V-0.176942
p106
sg31
I9782758
sbsS'EXC'
p107
(i__main__
Scrip
p108
(dp109
g4
S'Exelon'
p110
sg6
g107
sg7
g8
(g12
S'3\xe4\xf72\xe4\xf7 \xc0'
p111
tp112
Rp113
sg18
g8
(g12
S'\x02\xd5\xb1\xb76LI\xc0'
p114
tp115
Rp116
sg22
g8
(g12
S'\xb6\xd1\xc3\xb1\x80\xda:\xc0'
p117
tp118
Rp119
sg26
Vpositive
p120
sg28
I-1
sg29
V0.208209
p121
sg31
I9714632
sbsS'SPG'
p122
(i__main__
Scrip
p123
(dp124
g4
S'Simon Property Group, Inc.'
p125
sg6
g122
sg7
g8
(g12
S'\xef\xc7\xec\x88\xe7\x04\xfa?'
p126
tp127
Rp128
sg18
g8
(g12
S'$\x96\xe1\xda\xe6,n@'
p129
tp130
Rp131
sg22
g8
(g12
S'\xa8\x08uy\x01Xd@'
p132
tp133
Rp134
sg26
Vnegative
p135
sg28
I-1
sg29
V-0.179827
p136
sg31
I1829076
sbsS'HAL'
p137
(i__main__
Scrip
p138
(dp139
g4
S'Halliburton'
p140
sg6
g137
sg7
g8
(g12
S'R  \xaco\nE\xc0'
p141
tp142
Rp143
sg18
g8
(g12
S'\xb9\xa2i\x80\xaa\x99\xe3\xbf'
p144
tp145
Rp146
sg22
g8
(g12
S'\xff:D\xc6\xf5\xf4!@'
p147
tp148
Rp149
sg26
Vnegative
p150
sg28
I-1
sg29
V-0.236335
p151
sg31
I14486643
sbsS'WMT'
p152
(i__main__
Scrip
p153
(dp154
g4
S'Wal-Mart'
p155
sg6
g152
sg7
g8
(g12
S'\x0e>\xf8\xe0\x83\x0f/\xc0'
p156
tp157
Rp158
sg18
g8
(g12
S'9\xff\x0e\xe3%0-@'
p159
tp160
Rp161
sg22
g8
(g12
S't\xb2\xe3G\xc4E7@'
p162
tp163
Rp164
sg26
Vnegative
p165
sg28
I-1
sg29
V-0.138306
p166
sg31
I18905543
sbsS'GE'
p167
(i__main__
Scrip
p168
(dp169
g4
S'General Electric Co.'
p170
sg6
g167
sg7
g8
(g12
S'\t\x05v\x87\xbd~\x1a@'
p171
tp172
Rp173
sg18
g8
(g12
S'\xd7\x89\x9d\xd8\x89\xb5.\xc0'
p174
tp175
Rp176
sg22
g8
(g12
S'P\xec\xc4N\xec$T@'
p177
tp178
Rp179
sg26
Vpositive
p180
sg28
I-1
sg29
V0.137933
p181
sg31
I47341275
sbsS'GD'
p182
(i__main__
Scrip
p183
(dp184
g4
S'General Dynamics'
p185
sg6
g182
sg7
g8
(g12
S'\xed\xe3\xdf\x81HJ\x1d\xc0'
p186
tp187
Rp188
sg18
g8
(g12
S'D\x19\x94m\xc85F@'
p189
tp190
Rp191
sg22
g8
(g12
S'5\xdfu\xf3\x8e\xd5X@'
p192
tp193
Rp194
sg26
Vnegative
p195
sg28
I-1
sg29
V-0.382723
p196
sg31
I1907609
sbsS'T'
p197
(i__main__
Scrip
p198
(dp199
g4
S'AT&T Inc'
p200
sg6
g197
sg7
g8
(g12
S'|lE\xd0pR\x13@'
p201
tp202
Rp203
sg18
g8
(g12
S'\xe3aQE\x8b\xb4J@'
p204
tp205
Rp206
sg22
g8
(g12
S'\x8e\xc1\xc7\xe6\x81\x89F@'
p207
tp208
Rp209
sg26
Vpositive
p210
sg28
I-1
sg29
V0.0356379
p211
sg31
I40753441
sbsS'MRK'
p212
(i__main__
Scrip
p213
(dp214
g4
S'Merck & Co.'
p215
sg6
g212
sg7
g8
(g12
S'\x80"\x0cx\xdaU1\xc0'
p216
tp217
Rp218
sg18
g8
(g12
S'\x16>\xc1\xfd\xc1g\xff?'
p219
tp220
Rp221
sg22
g8
(g12
S';\xc2\x8f\x00\x08\xf2@@'
p222
tp223
Rp224
sg26
Vnegative
p225
sg28
I-1
sg29
V-0.181543
p226
sg31
I13284172
sbsS'GM'
p227
(i__main__
Scrip
p228
(dp229
g4
S'General Motors'
p230
sg6
g227
sg7
g8
(g12
S'O\xb6\xaf\xb1\xca\\\x1f\xc0'
p231
tp232
Rp233
sg26
Vnegative
p234
sg28
I-1
sg29
V-0.477423
p235
sg31
I18668733
sbsS'FOXA'
p236
(i__main__
Scrip
p237
(dp238
g4
S'Twenty-First Century Fox, Inc'
p239
sg6
g236
sg7
g8
(g12
S'N\xc4\x8f\xf9\x07\xb9=\xc0'
p240
tp241
Rp242
sg18
g8
(g12
S'Hh\xfb\xf9\xcb\xf07\xc0'
p243
tp244
Rp245
sg22
g8
(g12
S'\xa5#{\x06\xa2\xa2W@'
p246
tp247
Rp248
sg26
Vnegative
p249
sg28
I-1
sg29
V-0.510742
p250
sg31
I17318310
sbsS'APC'
p251
(i__main__
Scrip
p252
(dp253
g4
S'Anadarko Petroleum Corporation'
p254
sg6
g251
sg7
g8
(g12
S'\x01+\xef\xe2\xff\xcbK\xc0'
p255
tp256
Rp257
sg18
g8
(g12
S"<\x15\x93\\'\r6\xc0"
p258
tp259
Rp260
sg22
g8
(g12
S'\xb1\x1d\xca\xdad0B\xc0'
p261
tp262
Rp263
sg26
Vnegative
p264
sg28
I-1
sg29
V-0.507208
p265
sg31
I8275284
sbsS'APA'
p266
(i__main__
Scrip
p267
(dp268
g4
S'Apache Corp.'
p269
sg6
g266
sg7
g8
(g12
S'\x8f\xa4c\x7f\x12bH\xc0'
p270
tp271
Rp272
sg18
g8
(g12
S'c\xabg\x87\xc0\x8d\x07\xc0'
p273
tp274
Rp275
sg22
g8
(g12
S'(\xb7xr\x8b\xe7N\xc0'
p276
tp277
Rp278
sg26
Vnegative
p279
sg28
I-1
sg29
V-0.53392
p280
sg31
I6283260
sbsS'CL'
p281
(i__main__
Scrip
p282
(dp283
g4
S'Colgate-Palmolive Co.'
p284
sg6
g281
sg7
g8
(g12
S'{S\xeaf\xc1\xa4\x01\xc0'
p285
tp286
Rp287
sg18
g8
(g12
S'\x1c\xf8,\xc3\x0f\xa63@'
p288
tp289
Rp290
sg22
g8
(g12
S'\x82\xf0r\x8dVv0\xc0'
p291
tp292
Rp293
sg26
Vpositive
p294
sg28
I-1
sg29
V0.244782
p295
sg31
I4023916
sbsS'EMC'
p296
(i__main__
Scrip
p297
(dp298
g4
S'EMC Corporation'
p299
sg6
g296
sg7
g8
(g12
S')\xf8X\xb5\xd4p3\xc0'
p300
tp301
Rp302
sg18
g8
(g12
S'\x93\x91"\x9c\xe7bT@'
p303
tp304
Rp305
sg22
g8
(g12
S'\xe1g\x94\xf8\x19%D@'
p306
tp307
Rp308
sg26
Vpositive
p309
sg28
I-1
sg29
V0.0505948
p310
sg31
I20074794
sbsS'WFC'
p311
(i__main__
Scrip
p312
(dp313
g4
S'Wells Fargo'
p314
sg6
g311
sg7
g8
(g12
S'\x80\xeeV1a\xcf)\xc0'
p315
tp316
Rp317
sg18
g8
(g12
S'&\x15z\x9fhC2\xc0'
p318
tp319
Rp320
sg22
g8
(g12
S'\xf7\x85\\_\xc8\xf5Q@'
p321
tp322
Rp323
sg26
Vnegative
p324
sg28
I-1
sg29
V-0.531549
p325
sg31
I30727919
sbsS'EMR'
p326
(i__main__
Scrip
p327
(dp328
g4
S'Emerson Electric Co.'
p329
sg6
g326
sg7
g8
(g12
S'\xcf`a\x9e\x90\x07:\xc0'
p330
tp331
Rp332
sg18
g8
(g12
S'\xaa\x17\xf3\xa9\x17\xf37\xc0'
p333
tp334
Rp335
sg22
g8
(g12
S'\xc8\x13\xf7D\xeeK\x17@'
p336
tp337
Rp338
sg26
Vpositive
p339
sg28
I-1
sg29
V0.0921439
p340
sg31
I5168013
sbsS'FDX'
p341
(i__main__
Scrip
p342
(dp343
g4
S'FedEx'
p344
sg6
g341
sg7
g8
(g12
S'\xca\xe5+\x1an\t8\xc0'
p345
tp346
Rp347
sg18
g8
(g12
S'\xc6)\xe29\xfbwV@'
p348
tp349
Rp350
sg22
g8
(g12
S' #\xd4Yi|Q@'
p351
tp352
Rp353
sg26
Vneutral
p354
sg28
I-1
sg29
V0
p355
sg31
I1750778
sbsS'HD'
p356
(i__main__
Scrip
p357
(dp358
g4
S'Home Depot'
p359
sg6
g356
sg7
g8
(g12
S'm\x9eyA1!+@'
p360
tp361
Rp362
sg18
g8
(g12
S'\xda\xffX1s\x04k@'
p363
tp364
Rp365
sg22
g8
(g12
S'\\\xd5\x9eD\xff\xbbr@'
p366
tp367
Rp368
sg26
Vnegative
p369
sg28
I-1
sg29
V-0.475649
p370
sg31
I11273099
sbsS'MMM'
p371
(i__main__
Scrip
p372
(dp373
g4
S'3M Company'
p374
sg6
g371
sg7
g8
(g12
S'a\xe4\xe5\xa3\xde\xed\x08\xc0'
p375
tp376
Rp377
sg18
g8
(g12
S'\xb1\xcb\xb14\x8dhW@'
p378
tp379
Rp380
sg22
g8
(g12
S'\xf2\xc9<W>\xa0X@'
p381
tp382
Rp383
sg26
Vnegative
p384
sg28
I-1
sg29
V-0.170978
p385
sg31
I2501377
sbsS'LLY'
p386
(i__main__
Scrip
p387
(dp388
g4
S'Eli Lilly and Company'
p389
sg6
g386
sg7
g8
(g12
S'\xa8cO8\x93`$@'
p390
tp391
Rp392
sg18
g8
(g12
S'o\xac\xd7\xe3k\x1e\x04@'
p393
tp394
Rp395
sg22
g8
(g12
S'\xf8\x8f\xca\xe0\xfbS\\@'
p396
tp397
Rp398
sg26
Vnegative
p399
sg28
I-1
sg29
V-0.0610222
p400
sg31
I4341429
sbsS'RTN'
p401
(i__main__
Scrip
p402
(dp403
g4
S'Raytheon Company'
p404
sg6
g401
sg7
g8
(g12
S'\xfa\xcd\xe0r8\xb65@'
p405
tp406
Rp407
sg18
g8
(g12
S'\xa8\x93\xf2\xe9\xa4Lr@'
p408
tp409
Rp410
sg22
g8
(g12
S'AQrX92`@'
p411
tp412
Rp413
sg26
Vneutral
p414
sg28
I-1
sg29
g355
sg31
I2615702
sbsS'PG'
p415
(i__main__
Scrip
p416
(dp417
g4
S'Procter & Gamble Co'
p418
sg6
g415
sg7
g8
(g12
S'\xe5:.\x10l\xff\x1a\xc0'
p419
tp420
Rp421
sg18
g8
(g12
S'dkR\xb6&e3\xc0'
p422
tp423
Rp424
sg22
g8
(g12
S'K\xbdo\x9e\xb6GA@'
p425
tp426
Rp427
sg26
Vnegative
p428
sg28
I-1
sg29
V-0.350609
p429
sg31
I16488542
sbsS'LMT'
p430
(i__main__
Scrip
p431
(dp432
g4
S'Lockheed-Martin'
p433
sg6
g430
sg7
g8
(g12
S'@\x90"\xdb|\x9a-@'
p434
tp435
Rp436
sg18
g8
(g12
S'\xbe\xb8\xfaAGeu@'
p437
tp438
Rp439
sg22
g8
(g12
S'\r\xe55\x94\xd7\xc8f@'
p440
tp441
Rp442
sg26
Vnegative
p443
sg28
I-1
sg29
V-0.366418
p444
sg31
I2499593
sbsS'BMY'
p445
(i__main__
Scrip
p446
(dp447
g4
S'Bristol-Myers Squibb'
p448
sg6
g445
sg7
g8
(g12
S'\x0e\xb2\x97\xc3Z:\x18@'
p449
tp450
Rp451
sg18
g8
(g12
S'\x19\x84QH\xd2\xbc]@'
p452
tp453
Rp454
sg22
g8
(g12
S'\x8c\xa1\xea\x1d\xd6\xedc@'
p455
tp456
Rp457
sg26
Vnegative
p458
sg28
I-1
sg29
V-0.183534
p459
sg31
I10060505
sbsS'PM'
p460
(i__main__
Scrip
p461
(dp462
g4
S'Phillip Morris International'
p463
sg6
g460
sg7
g8
(g12
S't\x0c\xfb~t\x90\x00@'
p464
tp465
Rp466
sg22
g8
(g12
S'\xaf}.\xa3\xfe\xc0V@'
p467
tp468
Rp469
sg26
Vnegative
p470
sg28
I-1
sg29
V-0.117425
p471
sg31
I5117480
sbsS'C'
p472
(i__main__
Scrip
p473
(dp474
g4
S'Citigroup Inc'
p475
sg6
g472
sg7
g8
(g12
S'\xf8[\x9c\xd6l?=\xc0'
p476
tp477
Rp478
sg18
g8
(g12
S'J#v\x17_V7\xc0'
p479
tp480
Rp481
sg22
g8
(g12
S's\xb8\x0c\xf8\xe4\xc8\x90@'
p482
tp483
Rp484
sg26
Vnegative
p485
sg28
I-1
sg29
V-0.418224
p486
sg31
I35165147
sbsS'OXY'
p487
(i__main__
Scrip
p488
(dp489
g4
S'Occidental Petroleum Corp.'
p490
sg6
g487
sg7
g8
(g12
S'\x84\xf6?\xc4%K7\xc0'
p491
tp492
Rp493
sg18
g8
(g12
S'y$\xda\x13\x02\x9bH@'
p494
tp495
Rp496
sg22
g8
(g12
S'\xab\xf1\xac\xf3\x83\xd1*\xc0'
p497
tp498
Rp499
sg26
Vnegative
p500
sg28
I-1
sg29
V-0.196102
p501
sg31
I6587340
sbsS'QCOM'
p502
(i__main__
Scrip
p503
(dp504
g4
S'Qualcomm Inc.'
p505
sg6
g502
sg7
g8
(g12
S'j0T>\xaf\x06C\xc0'
p506
tp507
Rp508
sg18
g8
(g12
S'V\xc4D\xb1\x7f\xb2=\xc0'
p509
tp510
Rp511
sg22
g8
(g12
S'\x8f\xa5/)\xd1\xc1.@'
p512
tp513
Rp514
sg26
Vnegative
p515
sg28
I-1
sg29
V-0.0372452
p516
sg31
I12693490
sbsS'BLK'
p517
(i__main__
Scrip
p518
(dp519
g4
S'BlackRock Inc'
p520
sg6
g517
sg7
g8
(g12
S'\x0c\x9c\x80\x9c\x1d\xa0/\xc0'
p521
tp522
Rp523
sg18
g8
(g12
S'\xe1\x96\xa3\xac\xe0\xebx@'
p524
tp525
Rp526
sg22
g8
(g12
S'H\x82\xa2&\xbfFD@'
p527
tp528
Rp529
sg26
Vnegative
p530
sg28
I-1
sg29
V-0.211981
p531
sg31
I1162088
sbsS'JNJ'
p532
(i__main__
Scrip
p533
(dp534
g4
S'Johnson & Johnson Inc'
p535
sg6
g532
sg7
g8
(g12
S'\xa3B\xb4\xe1\xf3\xc7\x16\xc0'
p536
tp537
Rp538
sg18
g8
(g12
S'\xcf!5\xc1x+V@'
p539
tp540
Rp541
sg22
g8
(g12
S'm\x03\x8b,\x0fCO@'
p542
tp543
Rp544
sg26
Vnegative
p545
sg28
I-1
sg29
V-0.327752
p546
sg31
I14294324
sbsS'UPS'
p547
(i__main__
Scrip
p548
(dp549
g4
S'United Parcel Service Inc'
p550
sg6
g547
sg7
g8
(g12
S'\xed\xcb\xb6\xf6\xe2\xd7$\xc0'
p551
tp552
Rp553
sg18
g8
(g12
S'V\x9dY\xe1lWC@'
p554
tp555
Rp556
sg22
g8
(g12
S'iyCZ\x9cuQ@'
p557
tp558
Rp559
sg26
Vnegative
p560
sg28
I-1
sg29
V-0.671872
p561
sg31
I4523354
sbsS'MA'
p562
(i__main__
Scrip
p563
(dp564
g4
S'Mastercard Inc'
p565
sg6
g562
sg7
g8
(g12
S'\xac\xaa/\xd7K.\x10\xc0'
p566
tp567
Rp568
sg22
g8
(g12
S'\xf6*\x8a\xc4\x15\xf4O\xc0'
p569
tp570
Rp571
sg26
Vnegative
p572
sg28
I-1
sg29
V-0.520152
p573
sg31
I9205724
sbsS'MO'
p574
(i__main__
Scrip
p575
(dp576
g4
S'Altria Group'
p577
sg6
g574
sg7
g8
(g12
S'\xa5\x8a\x7f\\4\x9e3@'
p578
tp579
Rp580
sg18
g8
(g12
S'RN\xddmy\xff\x06@'
p581
tp582
Rp583
sg22
g8
(g12
S'\x97\x08\xa6S\xc1\x97h@'
p584
tp585
Rp586
sg26
Vpositive
p587
sg28
I-1
sg29
V0.7215
p588
sg31
I7876085
sbsS'MDLZ'
p589
(i__main__
Scrip
p590
(dp591
g4
S'Mondelez International'
p592
sg6
g589
sg7
g8
(g12
S'\xa4\xdf\xb3\xd8\x90)\x15\xc0'
p593
tp594
Rp595
sg18
g8
(g12
S'\xb7\x93d\xdd\xdfO#@'
p596
tp597
Rp598
sg22
g8
(g12
S"K\x91\xdc's\xbe9@"
p599
tp600
Rp601
sg26
Vpositive
p602
sg28
I-1
sg29
V0.0824401
p603
sg31
I19292631
sbsS'MON'
p604
(i__main__
Scrip
p605
(dp606
g4
S'Monsanto'
p607
sg6
g604
sg7
g8
(g12
S'e\x89\xc7?\xccL7\xc0'
p608
tp609
Rp610
sg18
g8
(g12
S'\xfb\x92\x1b\rt\x1cg@'
p611
tp612
Rp613
sg22
g8
(g12
S'\x03\xac~\xc8<\xf66@'
p614
tp615
Rp616
sg26
Vnegative
p617
sg28
I-1
sg29
V-0.542261
p618
sg31
I2698712
sbsS'MS'
p619
(i__main__
Scrip
p620
(dp621
g4
S'Morgan Stanley'
p622
sg6
g619
sg7
g8
(g12
S'c;\x04\x15\x8b=B\xc0'
p623
tp624
Rp625
sg18
g8
(g12
S';\xf2\x9e\x88%>O\xc0'
p626
tp627
Rp628
sg22
g8
(g12
S'\xfav\x8bJzp0\xc0'
p629
tp630
Rp631
sg26
Vpositive
p632
sg28
I-1
sg29
V0.28426
p633
sg31
I24246108
sbsS'NOV'
p634
(i__main__
Scrip
p635
(dp636
g4
S'National Oilwell Varco'
p637
sg6
g634
sg7
g8
(g12
S'\xc4\x88\x11#F\x8cN\xc0'
p638
tp639
Rp640
sg18
g8
(g12
S'\x88&\x1c\xee\x96\xd6\xe7?'
p641
tp642
Rp643
sg22
g8
(g12
S'\x13\xad\xfe\x84\xa1\x9e@\xc0'
p644
tp645
Rp646
sg26
Vnegative
p647
sg28
I-1
sg29
V-0.764666
p648
sg31
I6804992
sbsS'COP'
p649
(i__main__
Scrip
p650
(dp651
g4
S'ConocoPhillips'
p652
sg6
g649
sg7
g8
(g12
S'Y&\x91\xf0\x00\xb2I\xc0'
p653
tp654
Rp655
sg18
g8
(g12
S'\xec\xceE\x96b\xa0I\xc0'
p656
tp657
Rp658
sg22
g8
(g12
S'S\xbc@&\xc5\x0b<\xc0'
p659
tp660
Rp661
sg26
Vnegative
p662
sg28
I-1
sg29
V-0.394943
p663
sg31
I21913656
sbsS'DVN'
p664
(i__main__
Scrip
p665
(dp666
g4
S'Devon Energy'
p667
sg6
g664
sg7
g8
(g12
S'\x12Q\x95\xa1,\x85O\xc0'
p668
tp669
Rp670
sg18
g8
(g12
S'\xf8|\xe4\xde\xfanL\xc0'
p671
tp672
Rp673
sg22
g8
(g12
S'\r9y\x1fK%P\xc0'
p674
tp675
Rp676
sg26
Vnegative
p677
sg28
I-1
sg29
V-0.147004
p678
sg31
I9301650
sbsS'PEP'
p679
(i__main__
Scrip
p680
(dp681
g4
S'Pepsico Inc.'
p682
sg6
g679
sg7
g8
(g12
S'\x98\x06\xef%\x822\xca\xbf'
p683
tp684
Rp685
sg18
g8
(g12
S'd\x9b\x16T\xb9\xcdU@'
p686
tp687
Rp688
sg22
g8
(g12
S'\x1e\xed\x88/\x91\xefO@'
p689
tp690
Rp691
sg26
Vpositive
p692
sg28
I-1
sg29
V0.357409
p693
sg31
I4710360
sbsS'ACN'
p694
(i__main__
Scrip
p695
(dp696
g4
S'Accenture plc'
p697
sg6
g694
sg7
g8
(g12
S'\xeb\x01<DC\xa5(@'
p698
tp699
Rp700
sg18
g8
(g12
S'$]e\xfc\x1f\xe4s@'
p701
tp702
Rp703
sg22
g8
(g12
S'2\x17\xd0W[\xc3`@'
p704
tp705
Rp706
sg26
Vpositive
p707
sg28
I-1
sg29
V0.668262
p708
sg31
I6677740
sbsS'FB'
p709
(i__main__
Scrip
p710
(dp711
g4
S'Facebook'
p712
sg6
g709
sg7
g8
(g12
S'Pu\xee_\xcb\xbf@@'
p713
tp714
Rp715
sg26
Vpositive
p716
sg28
I-1
sg29
V0.150756
p717
sg31
I70889940
sbsS'COST'
p718
(i__main__
Scrip
p719
(dp720
g4
S'Costco'
p721
sg6
g718
sg7
g8
(g12
S'\xf5T\x16c\xf6\xaa\x18@'
p722
tp723
Rp724
sg18
g8
(g12
S'W\x1a\x9a\xd3\xea\x7fq@'
p725
tp726
Rp727
sg22
g8
(g12
S'\xe0T\x8d\xf9\x88\xc6b@'
p728
tp729
Rp730
sg26
Vnegative
p731
sg28
I-1
sg29
V-0.291211
p732
sg31
I3733392
sbsS'COF'
p733
(i__main__
Scrip
p734
(dp735
g4
S'Capital One Financial Corp.'
p736
sg6
g733
sg7
g8
(g12
S'D\xb50\xb0:Z9\xc0'
p737
tp738
Rp739
sg18
g8
(g12
S'j\xf5Ft\xf3\x00*\xc0'
p740
tp741
Rp742
sg22
g8
(g12
S'\x82\xd0\xbc\x81\xd0\x0cR@'
p743
tp744
Rp745
sg26
Vpositive
p746
sg28
I-1
sg29
V0.171172
p747
sg31
I3875214
sbsS'DOW'
p748
(i__main__
Scrip
p749
(dp750
g4
S'Dow Chemical'
p751
sg6
g748
sg7
g8
(g12
S'\xb5Z\x08\xfaqe$\xc0'
p752
tp753
Rp754
sg18
g8
(g12
S'z\xbe\xa0/\xe8\x0b\x1e@'
p755
tp756
Rp757
sg22
g8
(g12
S'\xa6W$\xc4\x8fmN@'
p758
tp759
Rp760
sg26
Vnegative
p761
sg28
I-1
sg29
V-0.100038
p762
sg31
I13453888
sbsS'MSFT'
p763
(i__main__
Scrip
p764
(dp765
g4
S'Microsoft'
p766
sg6
g763
sg7
g8
(g12
S'\xaa\x98\x84\xc4\xbf\xf1\xd5\xbf'
p767
tp768
Rp769
sg18
g8
(g12
S'\xcba\x0es\x98CU@'
p770
tp771
Rp772
sg22
g8
(g12
S'\xff\xeeY\xa8\xae\x19S@'
p773
tp774
Rp775
sg26
Vpositive
p776
sg28
I-1
sg29
V0.665156
p777
sg31
I56811901
sbsS'IBM'
p778
(i__main__
Scrip
p779
(dp780
g4
S'International Business Machines'
p781
sg6
g778
sg7
g8
(g12
S'_>\x83\xf9\x0c\xa66\xc0'
p782
tp783
Rp784
sg18
g8
(g12
S'\x05\x8c\x0e\x06\xf50?@'
p785
tp786
Rp787
sg22
g8
(g12
S'\xfc\xbc1\xd0\xde\xbc\x10@'
p788
tp789
Rp790
sg26
Vpositive
p791
sg28
I-1
sg29
V0.728217
p792
sg31
I6793959
sbsS'FCX'
p793
(i__main__
Scrip
p794
(dp795
g4
S'Freeport-McMoran'
p796
sg6
g793
sg7
g8
(g12
S'\x06\xce0\xc6\xa5]T\xc0'
p797
tp798
Rp799
sg18
g8
(g12
S'h\xe8\xc9\x11\xd6\xe2U\xc0'
p800
tp801
Rp802
sg22
g8
(g12
S'\\\xc5\xcc*Q!W\xc0'
p803
tp804
Rp805
sg26
Vnegative
p806
sg28
I-1
sg29
V-0.242368
p807
sg31
I64853358
sbsS'MDT'
p808
(i__main__
Scrip
p809
(dp810
g4
S'Medtronic Inc.'
p811
sg6
g808
sg7
g8
(g12
S'i\x1d\xb8\x18\xd5j\xe8?'
p812
tp813
Rp814
sg18
g8
(g12
S'1\x06\xfa\xc7\x12\xb0I@'
p815
tp816
Rp817
sg22
g8
(g12
S'\x95b\x82\xee*\xc5P@'
p818
tp819
Rp820
sg26
Vpositive
p821
sg28
I-1
sg29
V0.307782
p822
sg31
I6534144
sbsS'UNP'
p823
(i__main__
Scrip
p824
(dp825
g4
S'Union Pacific Corp.'
p826
sg6
g823
sg7
g8
(g12
S'\x1d\x8f\x80\xf8\xcdqA\xc0'
p827
tp828
Rp829
sg18
g8
(g12
S'2\x05\x8c\x01\xd1+8@'
p830
tp831
Rp832
sg22
g8
(g12
S'\x00\xc4`\xe1\xc8\\+@'
p833
tp834
Rp835
sg26
Vnegative
p836
sg28
I-1
sg29
V-0.0790883
p837
sg31
I7594950
sbsS'F'
p838
(i__main__
Scrip
p839
(dp840
g4
S'Ford Motor'
p841
sg6
g838
sg7
g8
(g12
S'~h\xac\x0f\x8d\x15:\xc0'
p842
tp843
Rp844
sg18
g8
(g12
S'\x9bL_%\x8c\xcd.\xc0'
p845
tp846
Rp847
sg22
g8
(g12
S"\xf0\x0c'u_\x1e\x0b@"
p848
tp849
Rp850
sg26
Vpositive
p851
sg28
I-1
sg29
V0.0296049
p852
sg31
I45190385
sbsS'GILD'
p853
(i__main__
Scrip
p854
(dp855
g4
S'Gilead Sciences'
p856
sg6
g853
sg7
g8
(g12
S'\x07\xa9h\x934-2\xc0'
p857
tp858
Rp859
sg18
g8
(g12
S'E\xa4\xd0\x82\xb1\xc8L@'
p860
tp861
Rp862
sg22
g8
(g12
S'2ld\xf0\x18?U@'
p863
tp864
Rp865
sg26
Vnegative
p866
sg28
I-1
sg29
V-0.29533
p867
sg31
I18546402
sbsS'V'
p868
(i__main__
Scrip
p869
(dp870
g4
S'Visa Inc.'
p871
sg6
g868
sg7
g8
(g12
S'!\xa5\xa9L\x0cjR\xc0'
p872
tp873
Rp874
sg22
g8
(g12
S'\x1b\xed\xc6\xdf\xb6N5\xc0'
p875
tp876
Rp877
sg26
Vnegative
p878
sg28
I-1
sg29
V-0.0230817
p879
sg31
I29822811
sbsS'UNH'
p880
(i__main__
Scrip
p881
(dp882
g4
S'UnitedHealth Group Inc.'
p883
sg6
g880
sg7
g8
(g12
S'\x10\x11@\xf0\x84r-@'
p884
tp885
Rp886
sg18
g8
(g12
S'\x7fz\xb7\xd5z\xefS@'
p887
tp888
Rp889
sg22
g8
(g12
S'\xe1\xb8\x8b\x18l\xc3m@'
p890
tp891
Rp892
sg26
Vnegative
p893
sg28
I-1
sg29
V-0.636276
p894
sg31
I4993200
sbsS'PFE'
p895
(i__main__
Scrip
p896
(dp897
g4
S'Pfizer Inc'
p898
sg6
g895
sg7
g8
(g12
S'\xfa_&\xdc$u\x18\xc0'
p899
tp900
Rp901
sg18
g8
(g12
S'\xde\x1f\xeb\x9a\xfbc7\xc0'
p902
tp903
Rp904
sg22
g8
(g12
S'\x0fKE,\x15\xb1J@'
p905
tp906
Rp907
sg26
Vnegative
p908
sg28
I-1
sg29
V-0.246583
p909
sg31
I47413790
sbsS'ALL'
p910
(i__main__
Scrip
p911
(dp912
g4
S'Allstate Corp.'
p913
sg6
g910
sg7
g8
(g12
S'\xdc\xd7\t\x80\x7f\x86\x13\xc0'
p914
tp915
Rp916
sg18
g8
(g12
S'o\xa7?b\x01wB@'
p917
tp918
Rp919
sg22
g8
(g12
S'?\xa8<\x19\xc9\xc3]@'
p920
tp921
Rp922
sg26
Vpositive
p923
sg28
I-1
sg29
V0.572007
p924
sg31
I3004644
sbsS'KO'
p925
(i__main__
Scrip
p926
(dp927
g4
S'The Coca-Cola Company'
p928
sg6
g925
sg7
g8
(g12
S'\xe5n\xce\xcb\x85s\x13\xc0'
p929
tp930
Rp931
sg18
g8
(g12
S'\xb9\xcd\x95\xb4\xe0\x0e-\xc0'
p932
tp933
Rp934
sg22
g8
(g12
S'F\xcb3C\xf2\xad6\xc0'
p935
tp936
Rp937
sg26
Vpositive
p938
sg28
I-1
sg29
V0.527075
p939
sg31
I17212089
sbsS'EBAY'
p940
(i__main__
Scrip
p941
(dp942
g4
S'eBay Inc.'
p943
sg6
g940
sg7
g8
(g12
S'\xb3\xf1xMR5M\xc0'
p944
tp945
Rp946
sg18
g8
(g12
S'\xed\xcf>\xc3\x87\xc9P\xc0'
p947
tp948
Rp949
sg22
g8
(g12
S'\xd5!\x9f\xb4#\xd4\t\xc0'
p950
tp951
Rp952
sg26
Vpositive
p953
sg28
I-1
sg29
V0.644139
p954
sg31
I20499469
sbsS'SBUX'
p955
(i__main__
Scrip
p956
(dp957
g4
S'Starbucks Corporation'
p958
sg6
g955
sg7
g8
(g12
S'R\xc6fM\xe1}>\xc0'
p959
tp960
Rp961
sg18
g8
(g12
S'\xca\x07\xcd\xef\xae\xabE@'
p962
tp963
Rp964
sg22
g8
(g12
S'\x86\xb6I\x1c\x83\x87b@'
p965
tp966
Rp967
sg26
Vpositive
p968
sg28
I-1
sg29
V0.00704603
p969
sg31
I21395658
sbsS'MET'
p970
(i__main__
Scrip
p971
(dp972
g4
S'Metlife Inc.'
p973
sg6
g970
sg7
g8
(g12
S'm\xa3\x83<S\xdf?\xc0'
p974
tp975
Rp976
sg18
g8
(g12
S'l\xa9l\xef:\xa0\x1b@'
p977
tp978
Rp979
sg22
g8
(g12
S'(l\xe9Au\xc2\x16@'
p980
tp981
Rp982
sg26
Vnegative
p983
sg28
I-1
sg29
V-0.179314
p984
sg31
I10676902
sbsS'SO'
p985
(i__main__
Scrip
p986
(dp987
g4
S'Southern Company'
p988
sg6
g985
sg7
g8
(g12
S'\xaa|\x9c\xf52\x16\x11@'
p989
tp990
Rp991
sg18
g8
(g12
S'\x0c[.\xbd\x1f\xa4M@'
p992
tp993
Rp994
sg22
g8
(g12
S'\xea{\xb9x\xcd;J@'
p995
tp996
Rp997
sg26
Vnegative
p998
sg28
I-1
sg29
V-0.641311
p999
sg31
I6981580
sbsS'CMCSA'
p1000
(i__main__
Scrip
p1001
(dp1002
g4
S'Comcast Corporation'
p1003
sg6
g1000
sg7
g8
(g12
S'\x9a\xc4\xc1\xfb\xd6\xc8"@'
p1004
tp1005
Rp1006
sg18
g8
(g12
S'\xdeYl\xa9iRY@'
p1007
tp1008
Rp1009
sg22
g8
(g12
S'm\x93l\x93l\xd3q@'
p1010
tp1011
Rp1012
sg26
Vnegative
p1013
sg28
I-1
sg29
V-0.290238
p1014
sg31
I27399131
sbsS'BAC'
p1015
(i__main__
Scrip
p1016
(dp1017
g4
S'Bank of America Corp'
p1018
sg6
g1015
sg7
g8
(g12
S'~=\x18\x074(=\xc0'
p1019
tp1020
Rp1021
sg18
g8
(g12
S'os\xd3G\xed:U\xc0'
p1022
tp1023
Rp1024
sg22
g8
(g12
S'\x97\x8e\xafg\xdb\xfd4\xc0'
p1025
tp1026
Rp1027
sg26
Vnegative
p1028
sg28
I-1
sg29
V-0.464162
p1029
sg31
I210649924
sbsS'USB'
p1030
(i__main__
Scrip
p1031
(dp1032
g4
S'US Bancorp'
p1033
sg6
g1030
sg7
g8
(g12
S'm\xdb\xd4{,\xf3#\xc0'
p1034
tp1035
Rp1036
sg18
g8
(g12
S'-\xaf\xac\xf5R\xb9B@'
p1037
tp1038
Rp1039
sg22
g8
(g12
S'\xa6\xe6n\xccE\xa5P@'
p1040
tp1041
Rp1042
sg26
Vpositive
p1043
sg28
I-1
sg29
V0.610783
p1044
sg31
I13872707
sbsS'CVX'
p1045
(i__main__
Scrip
p1046
(dp1047
g4
S'Chevron'
p1048
sg6
g1045
sg7
g8
(g12
S'&s\xefh\x1a\x13:\xc0'
p1049
tp1050
Rp1051
sg18
g8
(g12
S't~\xdd\x01L\xd9\x00\xc0'
p1052
tp1053
Rp1054
sg22
g8
(g12
S'\x8b\xc5\xd3o\x0f\x964@'
p1055
tp1056
Rp1057
sg26
Vnegative
p1058
sg28
I-1
sg29
V-0.412108
p1059
sg31
I17683427
sbsS'DD'
p1060
(i__main__
Scrip
p1061
(dp1062
g4
S'DuPont'
p1063
sg6
g1060
sg7
g8
(g12
S'\xe8\x0f\x85\xe4\x02\xde1\xc0'
p1064
tp1065
Rp1066
sg18
g8
(g12
S'\x86\xf8\xf8F\xaf\xc3<@'
p1067
tp1068
Rp1069
sg22
g8
(g12
S'\xdd\xda\xc0\xbdZ)T@'
p1070
tp1071
Rp1072
sg26
Vpositive
p1073
sg28
I-1
sg29
V0.531423
p1074
sg31
I6797934
sbsS'CVS'
p1075
(i__main__
Scrip
p1076
(dp1077
g4
S'CVS Caremark'
p1078
sg6
g1075
sg7
g8
(g12
S'\xf0++\xd0\xc3\n\xe1\xbf'
p1079
tp1080
Rp1081
sg18
g8
(g12
S'\xba\x11\xcf|\xd0\x8ab@'
p1082
tp1083
Rp1084
sg22
g8
(g12
S'O$\xb6\xe5\xb9\xbfe@'
p1085
tp1086
Rp1087
sg26
Vnegative
p1088
sg28
I-1
sg29
V-0.0528915
p1089
sg31
I9654520
sbsS'BAX'
p1090
(i__main__
Scrip
p1091
(dp1092
g4
S'Baxter International Inc'
p1093
sg6
g1090
sg7
g8
(g12
S'<\x04\x12\x92\xe2\xc3H\xc0'
p1094
tp1095
Rp1096
sg18
g8
(g12
S'\x10\xa4\xdcT4O8@'
p1097
tp1098
Rp1099
sg22
g8
(g12
S'z>\x81\xf571B\xc0'
p1100
tp1101
Rp1102
sg26
Vnegative
p1103
sg28
I-1
sg29
V-0.377631
p1104
sg31
I6251258
sbsS'CAT'
p1105
(i__main__
Scrip
p1106
(dp1107
g4
S'Caterpillar Inc'
p1108
sg6
g1105
sg7
g8
(g12
S'H\x07\xe1\xb9\xbe\xa5B\xc0'
p1109
tp1110
Rp1111
sg18
g8
(g12
S'w\xd9A$\xe0\xdd/\xc0'
p1112
tp1113
Rp1114
sg22
g8
(g12
S'\\\xa4[\xa4[\xa49@'
p1115
tp1116
Rp1117
sg26
Vpositive
p1118
sg28
I-1
sg29
V0.670005
p1119
sg31
I6311216
sbsS'LOW'
p1120
(i__main__
Scrip
p1121
(dp1122
g4
S"Lowe's"
p1123
sg6
g1120
sg7
g8
(g12
S'\xdaR\x0c#\xdf\xf7 @'
p1124
tp1125
Rp1126
sg18
g8
(g12
S'\x01\x8d\x1d/\xa2\xe2,@'
p1127
tp1128
Rp1129
sg22
g8
(g12
S'\xf4Z\xaf\xf5Z\xdfg@'
p1130
tp1131
Rp1132
sg26
Vnegative
p1133
sg28
I-1
sg29
V-0.721762
p1134
sg31
I8300772
sbsS'WBA'
p1135
(i__main__
Scrip
p1136
(dp1137
g4
S'Walgreens Boots Alliance'
p1138
sg6
g1135
sg26
Vpositive
p1139
sg28
I-1
sg29
V0.378496
p1140
sg31
I8754774
sbsS'GS'
p1141
(i__main__
Scrip
p1142
(dp1143
g4
S'Goldman Sachs'
p1144
sg6
g1141
sg7
g8
(g12
S'\xa1\x92KM\xe5\x8b5\xc0'
p1145
tp1146
Rp1147
sg18
g8
(g12
S'Z\x98\xd5(\xe2\x88E@'
p1148
tp1149
Rp1150
sg22
g8
(g12
S'\x9b\xeb\xc7\xfc\xf4\x96\xf3\xbf'
p1151
tp1152
Rp1153
sg26
Vpositive
p1154
sg28
I-1
sg29
V0.773214
p1155
sg31
I8665393
sbsS'AIG'
p1156
(i__main__
Scrip
p1157
(dp1158
g4
S'American International Group Inc.'
p1159
sg6
g1156
sg7
g8
(g12
S'\x82\xb4\xcc\x03h\xbf\x07\xc0'
p1160
tp1161
Rp1162
sg18
g8
(g12
S'\xd2\x8cH\xea[Z=\xc0'
p1163
tp1164
Rp1165
sg22
g8
(g12
S'[\x1d\xbf7\x18\xac`@'
p1166
tp1167
Rp1168
sg26
Vnegative
p1169
sg28
I-1
sg29
V-0.110074
p1170
sg31
I14849896
sbsS'TWX'
p1171
(i__main__
Scrip
p1172
(dp1173
g4
S'Time Warner Inc.'
p1174
sg6
g1171
sg7
g8
(g12
S'\xec\xc3\xba[\xbd\x93-\xc0'
p1175
tp1176
Rp1177
sg18
g8
(g12
S'"\x99\x87d\x1e\xc2q@'
p1178
tp1179
Rp1180
sg22
g8
(g12
S'-\xb5\x89\x8eq\x9fb@'
p1181
tp1182
Rp1183
sg26
Vnegative
p1184
sg28
I-1
sg29
V-0.120389
p1185
sg31
I6370895
sbsS'DIS'
p1186
(i__main__
Scrip
p1187
(dp1188
g4
S'The Walt Disney Company'
p1189
sg6
g1186
sg7
g8
(g12
S"\x99A\xb8'$\xd2\xfc?"
p1190
tp1191
Rp1192
sg18
g8
(g12
S'\xeaZ\x0en\xf6\x8bn@'
p1193
tp1194
Rp1195
sg22
g8
(g12
S'\x7f\x08\x83\x9c%{j@'
p1196
tp1197
Rp1198
sg26
Vpositive
p1199
sg28
I-1
sg29
V0.263994
p1200
sg31
I13658358
sbsS'TXN'
p1201
(i__main__
Scrip
p1202
(dp1203
g4
S'Texas Instruments'
p1204
sg6
g1201
sg7
g8
(g12
S'T\xad\x91\x92\\\x9f\xf6\xbf'
p1205
tp1206
Rp1207
sg18
g8
(g12
S'\xc6u`7W\x8bQ@'
p1208
tp1209
Rp1210
sg22
g8
(g12
S'\xa7X\xd0\x1c*\x16^@'
p1211
tp1212
Rp1213
sg26
Vneutral
p1214
sg28
I-1
sg29
g355
sg31
I15553401
sbsS'TGT'
p1215
(i__main__
Scrip
p1216
(dp1217
g4
S'Target Corp.'
p1218
sg6
g1215
sg7
g8
(g12
S'\x88\xb5\x19\xd1\xc6\x0c\x1a@'
p1219
tp1220
Rp1221
sg18
g8
(g12
S'0\xadw[\x85aP@'
p1222
tp1223
Rp1224
sg22
g8
(g12
S'\r\x07b\x9f\xda\xdeB@'
p1225
tp1226
Rp1227
sg26
Vnegative
p1228
sg28
I-1
sg29
V-0.182252
p1229
sg31
I5377285
sbsS'BIIB'
p1230
(i__main__
Scrip
p1231
(dp1232
g4
S'Biogen Idec'
p1233
sg6
g1230
sg7
g8
(g12
S'?]\xb3\xa6$\xe25\xc0'
p1234
tp1235
Rp1236
sg18
g8
(g12
S'\x05\xd46\xb2?Ou@'
p1237
tp1238
Rp1239
sg22
g8
(g12
S'\xbc\xdeF\x7f(Dw@'
p1240
tp1241
Rp1242
sg26
Vnegative
p1243
sg28
I-1
sg29
V-0.796743
p1244
sg31
I2731621
sbsS'NSC'
p1245
(i__main__
Scrip
p1246
(dp1247
g4
S'Norfolk Southern Corporation'
p1248
sg6
g1245
sg7
g8
(g12
S'9`M\xdf\xcd\x9fC\xc0'
p1249
tp1250
Rp1251
sg18
g8
(g12
S'\xee\xe15\xadALk@'
p1252
tp1253
Rp1254
sg22
g8
(g12
S'\x81\x89\xb5\x9e\x84\xd4H@'
p1255
tp1256
Rp1257
sg26
Vpositive
p1258
sg28
I-1
sg29
V0.489779
p1259
sg31
I2733612
sbsS'ORCL'
p1260
(i__main__
Scrip
p1261
(dp1262
g4
S'Oracle Corporation'
p1263
sg6
g1260
sg7
g8
(g12
S'\x9b\x1c&\x88\xb5\x9c)\xc0'
p1264
tp1265
Rp1266
sg18
g8
(g12
S'=F\xeb\x01!\xded@'
p1267
tp1268
Rp1269
sg22
g8
(g12
S'\x1cF\x99\x8a\xe7\x9aI@'
p1270
tp1271
Rp1272
sg26
Vpositive
p1273
sg28
I-1
sg29
V0.240816
p1274
sg31
I20096791
sbsS'GOOG'
p1275
(i__main__
Scrip
p1276
(dp1277
g4
S'Google Inc.'
p1278
sg6
g1275
sg7
g8
(g12
S'\xba\x7f\x89\x95Ui9@'
p1279
tp1280
Rp1281
sg26
Vpositive
p1282
sg28
I-1
sg29
V0.68074
p1283
sg31
I4201417
sbsS'INTC'
p1284
(i__main__
Scrip
p1285
(dp1286
g4
S'Intel Corporation'
p1287
sg6
g1284
sg7
g8
(g12
S'\x89\x04\xec\xc2\x8d8.\xc0'
p1288
tp1289
Rp1290
sg18
g8
(g12
S'\x17M\x9a4i\xd2\xf4\xbf'
p1291
tp1292
Rp1293
sg22
g8
(g12
S'\x9d\xdb<\x8cdxH@'
p1294
tp1295
Rp1296
sg26
Vnegative
p1297
sg28
I-1
sg29
V-0.0644709
p1298
sg31
I28463113
sbsS'HON'
p1299
(i__main__
Scrip
p1300
(dp1301
g4
S'Honeywell'
p1302
sg6
g1299
sg7
g8
(g12
S'\xdc\xac\x87\xa4\xedk\x12@'
p1303
tp1304
Rp1305
sg18
g8
(g12
S'\x84\xd5\x1b\xdc\x05\xd0g@'
p1306
tp1307
Rp1308
sg22
g8
(g12
S'\xa8\x99\xed\x0e\xef\xebe@'
p1309
tp1310
Rp1311
sg26
Vpositive
p1312
sg28
I-1
sg29
V0.0790205
p1313
sg31
I3431608
sbsS'ABBV'
p1314
(i__main__
Scrip
p1315
(dp1316
g4
S'AbbVie Inc.'
p1317
sg6
g1314
sg7
g8
(g12
S"s\xf3'\r\xfb\xe00\xc0"
p1318
tp1319
Rp1320
sg26
Vnegative
p1321
sg28
I-1
sg29
V-0.270922
p1322
sg31
I9273977
sbsS'ABT'
p1323
(i__main__
Scrip
p1324
(dp1325
g4
S'Abbott Laboratories'
p1326
sg6
g1323
sg7
g8
(g12
S'a|\xca\xb4s\xb0.\xc0'
p1327
tp1328
Rp1329
sg18
g8
(g12
S"\xe0\xad\xecsHM'\xc0"
p1330
tp1331
Rp1332
sg22
g8
(g12
S'\xe2\xbb+NP\x97>\xc0'
p1333
tp1334
Rp1335
sg26
Vpositive
p1336
sg28
I-1
sg29
V0.00170727
p1337
sg31
I7792196
sbsS'VZ'
p1338
(i__main__
Scrip
p1339
(dp1340
g4
S'Verizon Communications Inc'
p1341
sg6
g1338
sg7
g8
(g12
S'l\x7fp\x10\x7fp\xd0?'
p1342
tp1343
Rp1344
sg18
g8
(g12
S'\xb4VI\xfe\xce\xecA@'
p1345
tp1346
Rp1347
sg22
g8
(g12
S'\xf2\xac\xd4\xe1\xe7tR@'
p1348
tp1349
Rp1350
sg26
Vnegative
p1351
sg28
I-1
sg29
V-0.0345287
p1352
sg31
I26978703
sbsS'XOM'
p1353
(i__main__
Scrip
p1354
(dp1355
g4
S'Exxon Mobil Corp'
p1356
sg6
g1353
sg7
g8
(g12
S'`\x9e\xf9c\x8ch/\xc0'
p1357
tp1358
Rp1359
sg18
g8
(g12
S'\x04m\xf7Vi\x8aW@'
p1360
tp1361
Rp1362
sg22
g8
(g12
S'\xfe(2\xac\xe945@'
p1363
tp1364
Rp1365
sg26
Vnegative
p1366
sg28
I-1
sg29
V-0.424939
p1367
sg31
I26545266
sbsS'SLB'
p1368
(i__main__
Scrip
p1369
(dp1370
g4
S'Schlumberger'
p1371
sg6
g1368
sg7
g8
(g12
S'\x07;k\x8ex\x0e=\xc0'
p1372
tp1373
Rp1374
sg18
g8
(g12
S'c\x18\x86a\x18\x86%@'
p1375
tp1376
Rp1377
sg22
g8
(g12
S'\xdc(\x18T=$\x16@'
p1378
tp1379
Rp1380
sg26
Vnegative
p1381
sg28
I-1
sg29
V-0.264027
p1382
sg31
I12354490
sbsS'JPM'
p1383
(i__main__
Scrip
p1384
(dp1385
g4
S'JP Morgan Chase & Co'
p1386
sg6
g1383
sg7
g8
(g12
S'wY\xd2I\xca0\x19\xc0'
p1387
tp1388
Rp1389
sg18
g8
(g12
S'\xa3t7\xd8\x8b\x90@@'
p1390
tp1391
Rp1392
sg22
g8
(g12
S'\x80{\xb3\xe1=\xe3D@'
p1393
tp1394
Rp1395
sg26
Vnegative
p1396
sg28
I-1
sg29
V-0.606019
p1397
sg31
I28161894
sbsS'NKE'
p1398
(i__main__
Scrip
p1399
(dp1400
g4
S'Nike'
p1401
sg6
g1398
sg7
g8
(g12
S'\xeb\xef\xf36\xe9.E\xc0'
p1402
tp1403
Rp1404
sg18
g8
(g12
S'\xbab\\\xb7\xf4/8\xc0'
p1405
tp1406
Rp1407
sg22
g8
(g12
S'\x9c\x10\x18\xd6\x9c\x96%\xc0'
p1408
tp1409
Rp1410
sg26
Vpositive
p1411
sg28
I-1
sg29
V0.0602438
p1412
sg31
I21183990
sbsS'MCD'
p1413
(i__main__
Scrip
p1414
(dp1415
g4
S"McDonald's Corp"
p1416
sg6
g1413
sg7
g8
(g12
S'z\xc5\x94&\xbd\xdf3@'
p1417
tp1418
Rp1419
sg18
g8
(g12
S'\xb7~\x9b\xec\xb0\xd6r@'
p1420
tp1421
Rp1422
sg22
g8
(g12
S'\xe1L\xd4\x12\xf0tS@'
p1423
tp1424
Rp1425
sg26
Vnegative
p1426
sg28
I-1
sg29
V-0.306856
p1427
sg31
I11299518
sbsS'CSCO'
p1428
(i__main__
Scrip
p1429
(dp1430
g4
S'Cisco Systems'
p1431
sg6
g1428
sg7
g8
(g12
S'\x02\xab\xc9\xc0\xc5\xf1,\xc0'
p1432
tp1433
Rp1434
sg18
g8
(g12
S'K7%\xd5!6\xf0?'
p1435
tp1436
Rp1437
sg22
g8
(g12
S'C\x0ev\xc6\xda\xf1\x12\xc0'
p1438
tp1439
Rp1440
sg26
Vpositive
p1441
sg28
I-1
sg29
V0.310318
p1442
sg31
I38712487
sbs.